
/home/bambusbjorn/Projects/dual-rail/build/test.elf:     file format elf32-littlearm


Disassembly of section .text:

00080000 <exception_table>:
   80000:	20088000 	andcs	r8, r8, r0
   80004:	0008064d 	andeq	r0, r8, sp, asr #12
   80008:	000807af 	andeq	r0, r8, pc, lsr #15
   8000c:	000807af 	andeq	r0, r8, pc, lsr #15
   80010:	000807af 	andeq	r0, r8, pc, lsr #15
   80014:	000807af 	andeq	r0, r8, pc, lsr #15
   80018:	000807af 	andeq	r0, r8, pc, lsr #15
	...
   8002c:	000807b1 			; <UNDEFINED> instruction: 0x000807b1
   80030:	000807af 	andeq	r0, r8, pc, lsr #15
   80034:	00000000 	andeq	r0, r0, r0
   80038:	000807b5 			; <UNDEFINED> instruction: 0x000807b5
   8003c:	000807b9 			; <UNDEFINED> instruction: 0x000807b9
   80040:	000807af 	andeq	r0, r8, pc, lsr #15
   80044:	000807af 	andeq	r0, r8, pc, lsr #15
   80048:	000807af 	andeq	r0, r8, pc, lsr #15
   8004c:	000807af 	andeq	r0, r8, pc, lsr #15
   80050:	000807af 	andeq	r0, r8, pc, lsr #15
   80054:	000807af 	andeq	r0, r8, pc, lsr #15
   80058:	000807af 	andeq	r0, r8, pc, lsr #15
   8005c:	000807af 	andeq	r0, r8, pc, lsr #15
   80060:	000801a1 	andeq	r0, r8, r1, lsr #3
   80064:	000807af 	andeq	r0, r8, pc, lsr #15
   80068:	00000000 	andeq	r0, r0, r0
   8006c:	000807af 	andeq	r0, r8, pc, lsr #15
   80070:	000807af 	andeq	r0, r8, pc, lsr #15
   80074:	000807af 	andeq	r0, r8, pc, lsr #15
   80078:	000807af 	andeq	r0, r8, pc, lsr #15
	...
   80084:	000801b5 			; <UNDEFINED> instruction: 0x000801b5
   80088:	000801c1 	andeq	r0, r8, r1, asr #3
   8008c:	000807af 	andeq	r0, r8, pc, lsr #15
   80090:	000801cd 	andeq	r0, r8, sp, asr #3
   80094:	000807af 	andeq	r0, r8, pc, lsr #15
   80098:	000807af 	andeq	r0, r8, pc, lsr #15
   8009c:	000807af 	andeq	r0, r8, pc, lsr #15
   800a0:	000807af 	andeq	r0, r8, pc, lsr #15
   800a4:	00000000 	andeq	r0, r0, r0
   800a8:	000807af 	andeq	r0, r8, pc, lsr #15
   800ac:	000807af 	andeq	r0, r8, pc, lsr #15
   800b0:	000807af 	andeq	r0, r8, pc, lsr #15
   800b4:	000807af 	andeq	r0, r8, pc, lsr #15
   800b8:	000807af 	andeq	r0, r8, pc, lsr #15
   800bc:	000807af 	andeq	r0, r8, pc, lsr #15
   800c0:	000807af 	andeq	r0, r8, pc, lsr #15
   800c4:	000807af 	andeq	r0, r8, pc, lsr #15
   800c8:	000807af 	andeq	r0, r8, pc, lsr #15
   800cc:	000807af 	andeq	r0, r8, pc, lsr #15
   800d0:	000807af 	andeq	r0, r8, pc, lsr #15
   800d4:	000807af 	andeq	r0, r8, pc, lsr #15
   800d8:	000807af 	andeq	r0, r8, pc, lsr #15
   800dc:	000807af 	andeq	r0, r8, pc, lsr #15
   800e0:	0008079d 	muleq	r8, sp, r7
   800e4:	000807af 	andeq	r0, r8, pc, lsr #15
   800e8:	000807af 	andeq	r0, r8, pc, lsr #15
   800ec:	000807af 	andeq	r0, r8, pc, lsr #15
   800f0:	000807af 	andeq	r0, r8, pc, lsr #15

000800f4 <__do_global_dtors_aux>:
   800f4:	b510      	push	{r4, lr}
   800f6:	4c05      	ldr	r4, [pc, #20]	; (8010c <__do_global_dtors_aux+0x18>)
   800f8:	7823      	ldrb	r3, [r4, #0]
   800fa:	b933      	cbnz	r3, 8010a <__do_global_dtors_aux+0x16>
   800fc:	4b04      	ldr	r3, [pc, #16]	; (80110 <__do_global_dtors_aux+0x1c>)
   800fe:	b113      	cbz	r3, 80106 <__do_global_dtors_aux+0x12>
   80100:	4804      	ldr	r0, [pc, #16]	; (80114 <__do_global_dtors_aux+0x20>)
   80102:	f3af 8000 	nop.w
   80106:	2301      	movs	r3, #1
   80108:	7023      	strb	r3, [r4, #0]
   8010a:	bd10      	pop	{r4, pc}
   8010c:	200708d4 	ldrdcs	r0, [r7], -r4
   80110:	00000000 	andeq	r0, r0, r0
   80114:	00085588 	andeq	r5, r8, r8, lsl #11

00080118 <frame_dummy>:
   80118:	b508      	push	{r3, lr}
   8011a:	4b06      	ldr	r3, [pc, #24]	; (80134 <frame_dummy+0x1c>)
   8011c:	b11b      	cbz	r3, 80126 <frame_dummy+0xe>
   8011e:	4806      	ldr	r0, [pc, #24]	; (80138 <frame_dummy+0x20>)
   80120:	4906      	ldr	r1, [pc, #24]	; (8013c <frame_dummy+0x24>)
   80122:	f3af 8000 	nop.w
   80126:	4806      	ldr	r0, [pc, #24]	; (80140 <frame_dummy+0x28>)
   80128:	6803      	ldr	r3, [r0, #0]
   8012a:	b113      	cbz	r3, 80132 <frame_dummy+0x1a>
   8012c:	4b05      	ldr	r3, [pc, #20]	; (80144 <frame_dummy+0x2c>)
   8012e:	b103      	cbz	r3, 80132 <frame_dummy+0x1a>
   80130:	4798      	blx	r3
   80132:	bd08      	pop	{r3, pc}
   80134:	00000000 	andeq	r0, r0, r0
   80138:	00085588 	andeq	r5, r8, r8, lsl #11
   8013c:	200708d8 	ldrdcs	r0, [r7], -r8
   80140:	00085588 	andeq	r5, r8, r8, lsl #11
   80144:	00000000 	andeq	r0, r0, r0

00080148 <initVariant>:
   80148:	4770      	bx	lr

0008014a <loop>:
   8014a:	f44f 707a 	mov.w	r0, #1000	; 0x3e8
   8014e:	f000 bb42 	b.w	807d6 <delay>
	...

00080154 <setup>:
   80154:	4802      	ldr	r0, [pc, #8]	; (80160 <setup+0xc>)
   80156:	f44f 31e1 	mov.w	r1, #115200	; 0x1c200
   8015a:	f001 b9af 	b.w	814bc <_ZN9UARTClass5beginEm>
   8015e:	bf00      	nop
   80160:	20070a00 	andcs	r0, r7, r0, lsl #20

00080164 <main>:
   80164:	b508      	push	{r3, lr}
   80166:	f001 f9db 	bl	81520 <_watchdogDefaultSetup>
   8016a:	f000 f835 	bl	801d8 <init>
   8016e:	f7ff ffeb 	bl	80148 <initVariant>
   80172:	2001      	movs	r0, #1
   80174:	f000 fb2f 	bl	807d6 <delay>
   80178:	4806      	ldr	r0, [pc, #24]	; (80194 <main+0x30>)
   8017a:	f000 fd97 	bl	80cac <_ZN10USBDevice_6attachEv>
   8017e:	f7ff ffe9 	bl	80154 <setup>
   80182:	f7ff ffe2 	bl	8014a <loop>
   80186:	4b04      	ldr	r3, [pc, #16]	; (80198 <main+0x34>)
   80188:	2b00      	cmp	r3, #0
   8018a:	d0fa      	beq.n	80182 <main+0x1e>
   8018c:	f000 f922 	bl	803d4 <_Z14serialEventRunv>
   80190:	e7f7      	b.n	80182 <main+0x1e>
   80192:	bf00      	nop
   80194:	20070e34 	andcs	r0, r7, r4, lsr lr
   80198:	000803d5 	ldrdeq	r0, [r8], -r5

0008019c <_Z11serialEventv>:
   8019c:	4770      	bx	lr
	...

000801a0 <UART_Handler>:
   801a0:	4801      	ldr	r0, [pc, #4]	; (801a8 <UART_Handler+0x8>)
   801a2:	f001 b98f 	b.w	814c4 <_ZN9UARTClass10IrqHandlerEv>
   801a6:	bf00      	nop
   801a8:	20070a00 	andcs	r0, r7, r0, lsl #20

000801ac <_Z12serialEvent1v>:
   801ac:	4770      	bx	lr

000801ae <_Z12serialEvent2v>:
   801ae:	4770      	bx	lr

000801b0 <_Z12serialEvent3v>:
   801b0:	4770      	bx	lr
	...

000801b4 <USART0_Handler>:
   801b4:	4801      	ldr	r0, [pc, #4]	; (801bc <USART0_Handler+0x8>)
   801b6:	f001 b985 	b.w	814c4 <_ZN9UARTClass10IrqHandlerEv>
   801ba:	bf00      	nop
   801bc:	20070aac 	andcs	r0, r7, ip, lsr #21

000801c0 <USART1_Handler>:
   801c0:	4801      	ldr	r0, [pc, #4]	; (801c8 <USART1_Handler+0x8>)
   801c2:	f001 b97f 	b.w	814c4 <_ZN9UARTClass10IrqHandlerEv>
   801c6:	bf00      	nop
   801c8:	20070ad4 	ldrdcs	r0, [r7], -r4

000801cc <USART3_Handler>:
   801cc:	4801      	ldr	r0, [pc, #4]	; (801d4 <USART3_Handler+0x8>)
   801ce:	f001 b979 	b.w	814c4 <_ZN9UARTClass10IrqHandlerEv>
   801d2:	bf00      	nop
   801d4:	20070afc 	strdcs	r0, [r7], -ip

000801d8 <init>:
   801d8:	e92d 41f0 	stmdb	sp!, {r4, r5, r6, r7, r8, lr}
   801dc:	4d3f      	ldr	r5, [pc, #252]	; (802dc <init+0x104>)
   801de:	f000 f9f1 	bl	805c4 <SystemInit>
   801e2:	682b      	ldr	r3, [r5, #0]
   801e4:	f44f 727a 	mov.w	r2, #1000	; 0x3e8
   801e8:	fbb3 f3f2 	udiv	r3, r3, r2
   801ec:	1e5a      	subs	r2, r3, #1
   801ee:	4b3c      	ldr	r3, [pc, #240]	; (802e0 <init+0x108>)
   801f0:	21f0      	movs	r1, #240	; 0xf0
   801f2:	605a      	str	r2, [r3, #4]
   801f4:	4a3b      	ldr	r2, [pc, #236]	; (802e4 <init+0x10c>)
   801f6:	2400      	movs	r4, #0
   801f8:	f882 1023 	strb.w	r1, [r2, #35]	; 0x23
   801fc:	2207      	movs	r2, #7
   801fe:	609c      	str	r4, [r3, #8]
   80200:	601a      	str	r2, [r3, #0]
   80202:	f001 fc17 	bl	81a34 <__libc_init_array>
   80206:	46a8      	mov	r8, r5
   80208:	4620      	mov	r0, r4
   8020a:	2100      	movs	r1, #0
   8020c:	3401      	adds	r4, #1
   8020e:	f000 fbb3 	bl	80978 <digitalWrite>
   80212:	2c4f      	cmp	r4, #79	; 0x4f
   80214:	d1f8      	bne.n	80208 <init+0x30>
   80216:	4c34      	ldr	r4, [pc, #208]	; (802e8 <init+0x110>)
   80218:	4e34      	ldr	r6, [pc, #208]	; (802ec <init+0x114>)
   8021a:	4f35      	ldr	r7, [pc, #212]	; (802f0 <init+0x118>)
   8021c:	4b35      	ldr	r3, [pc, #212]	; (802f4 <init+0x11c>)
   8021e:	f04f 35ff 	mov.w	r5, #4294967295	; 0xffffffff
   80222:	f8c4 50a0 	str.w	r5, [r4, #160]	; 0xa0
   80226:	f44f 7240 	mov.w	r2, #768	; 0x300
   8022a:	f8c6 50a0 	str.w	r5, [r6, #160]	; 0xa0
   8022e:	4620      	mov	r0, r4
   80230:	f8c3 50a0 	str.w	r5, [r3, #160]	; 0xa0
   80234:	2101      	movs	r1, #1
   80236:	2300      	movs	r3, #0
   80238:	f8c7 50a0 	str.w	r5, [r7, #160]	; 0xa0
   8023c:	f000 f92a 	bl	80494 <PIO_Configure>
   80240:	2000      	movs	r0, #0
   80242:	2101      	movs	r1, #1
   80244:	f000 fb98 	bl	80978 <digitalWrite>
   80248:	4620      	mov	r0, r4
   8024a:	2101      	movs	r1, #1
   8024c:	f44f 6240 	mov.w	r2, #3072	; 0xc00
   80250:	2300      	movs	r3, #0
   80252:	f000 f91f 	bl	80494 <PIO_Configure>
   80256:	4620      	mov	r0, r4
   80258:	2101      	movs	r1, #1
   8025a:	f44f 5240 	mov.w	r2, #12288	; 0x3000
   8025e:	2300      	movs	r3, #0
   80260:	f000 f918 	bl	80494 <PIO_Configure>
   80264:	4638      	mov	r0, r7
   80266:	2102      	movs	r1, #2
   80268:	2230      	movs	r2, #48	; 0x30
   8026a:	2300      	movs	r3, #0
   8026c:	f000 f912 	bl	80494 <PIO_Configure>
   80270:	4630      	mov	r0, r6
   80272:	2101      	movs	r1, #1
   80274:	f44f 6240 	mov.w	r2, #3072	; 0xc00
   80278:	2300      	movs	r3, #0
   8027a:	f000 f90b 	bl	80494 <PIO_Configure>
   8027e:	4620      	mov	r0, r4
   80280:	2101      	movs	r1, #1
   80282:	2203      	movs	r2, #3
   80284:	2300      	movs	r3, #0
   80286:	f000 f905 	bl	80494 <PIO_Configure>
   8028a:	2101      	movs	r1, #1
   8028c:	f44f 4240 	mov.w	r2, #49152	; 0xc000
   80290:	2300      	movs	r3, #0
   80292:	4630      	mov	r0, r6
   80294:	f000 f8fe 	bl	80494 <PIO_Configure>
   80298:	2025      	movs	r0, #37	; 0x25
   8029a:	f000 f941 	bl	80520 <pmc_enable_periph_clk>
   8029e:	f8d8 1000 	ldr.w	r1, [r8]
   802a2:	4a15      	ldr	r2, [pc, #84]	; (802f8 <init+0x120>)
   802a4:	230c      	movs	r3, #12
   802a6:	4815      	ldr	r0, [pc, #84]	; (802fc <init+0x124>)
   802a8:	f000 fa0c 	bl	806c4 <adc_init>
   802ac:	2301      	movs	r3, #1
   802ae:	4813      	ldr	r0, [pc, #76]	; (802fc <init+0x124>)
   802b0:	2100      	movs	r1, #0
   802b2:	f44f 1240 	mov.w	r2, #3145728	; 0x300000
   802b6:	f000 fa58 	bl	8076a <adc_configure_timing>
   802ba:	2100      	movs	r1, #0
   802bc:	460a      	mov	r2, r1
   802be:	480f      	ldr	r0, [pc, #60]	; (802fc <init+0x124>)
   802c0:	f000 fa4c 	bl	8075c <adc_configure_trigger>
   802c4:	4629      	mov	r1, r5
   802c6:	480d      	ldr	r0, [pc, #52]	; (802fc <init+0x124>)
   802c8:	f000 fa65 	bl	80796 <adc_disable_interrupt>
   802cc:	480b      	ldr	r0, [pc, #44]	; (802fc <init+0x124>)
   802ce:	f000 fa5e 	bl	8078e <adc_disable_all_channel>
   802d2:	e8bd 41f0 	ldmia.w	sp!, {r4, r5, r6, r7, r8, lr}
   802d6:	f000 ba69 	b.w	807ac <analogOutputInit>
   802da:	bf00      	nop
   802dc:	2007002c 	andcs	r0, r7, ip, lsr #32
   802e0:	e000e010 	and	lr, r0, r0, lsl r0
   802e4:	e000ed00 	and	lr, r0, r0, lsl #26
   802e8:	400e0e00 	andmi	r0, lr, r0, lsl #28
   802ec:	400e1000 	andmi	r1, lr, r0
   802f0:	400e1400 	andmi	r1, lr, r0, lsl #8
   802f4:	400e1200 	andmi	r1, lr, r0, lsl #4
   802f8:	01312d00 	teqeq	r1, r0, lsl #26
   802fc:	400c0000 	andmi	r0, ip, r0

00080300 <_GLOBAL__sub_I_g_APinDescription>:
   80300:	e92d 43f7 	stmdb	sp!, {r0, r1, r2, r4, r5, r6, r7, r8, r9, lr}
   80304:	4d23      	ldr	r5, [pc, #140]	; (80394 <_GLOBAL__sub_I_g_APinDescription+0x94>)
   80306:	4c24      	ldr	r4, [pc, #144]	; (80398 <_GLOBAL__sub_I_g_APinDescription+0x98>)
   80308:	4628      	mov	r0, r5
   8030a:	f001 f90f 	bl	8152c <_ZN10RingBufferC1Ev>
   8030e:	4620      	mov	r0, r4
   80310:	f001 f90c 	bl	8152c <_ZN10RingBufferC1Ev>
   80314:	f8df 90b4 	ldr.w	r9, [pc, #180]	; 803cc <_GLOBAL__sub_I_g_APinDescription+0xcc>
   80318:	2208      	movs	r2, #8
   8031a:	4613      	mov	r3, r2
   8031c:	491f      	ldr	r1, [pc, #124]	; (8039c <_GLOBAL__sub_I_g_APinDescription+0x9c>)
   8031e:	9500      	str	r5, [sp, #0]
   80320:	9401      	str	r4, [sp, #4]
   80322:	4f1f      	ldr	r7, [pc, #124]	; (803a0 <_GLOBAL__sub_I_g_APinDescription+0xa0>)
   80324:	481f      	ldr	r0, [pc, #124]	; (803a4 <_GLOBAL__sub_I_g_APinDescription+0xa4>)
   80326:	f001 f87f 	bl	81428 <_ZN9UARTClassC1EP4Uart4IRQnmP10RingBufferS4_>
   8032a:	4d1f      	ldr	r5, [pc, #124]	; (803a8 <_GLOBAL__sub_I_g_APinDescription+0xa8>)
   8032c:	4648      	mov	r0, r9
   8032e:	f001 f8fd 	bl	8152c <_ZN10RingBufferC1Ev>
   80332:	f8df 809c 	ldr.w	r8, [pc, #156]	; 803d0 <_GLOBAL__sub_I_g_APinDescription+0xd0>
   80336:	4638      	mov	r0, r7
   80338:	f001 f8f8 	bl	8152c <_ZN10RingBufferC1Ev>
   8033c:	4e1b      	ldr	r6, [pc, #108]	; (803ac <_GLOBAL__sub_I_g_APinDescription+0xac>)
   8033e:	4628      	mov	r0, r5
   80340:	f001 f8f4 	bl	8152c <_ZN10RingBufferC1Ev>
   80344:	4c1a      	ldr	r4, [pc, #104]	; (803b0 <_GLOBAL__sub_I_g_APinDescription+0xb0>)
   80346:	4640      	mov	r0, r8
   80348:	f001 f8f0 	bl	8152c <_ZN10RingBufferC1Ev>
   8034c:	4630      	mov	r0, r6
   8034e:	f001 f8ed 	bl	8152c <_ZN10RingBufferC1Ev>
   80352:	4620      	mov	r0, r4
   80354:	f001 f8ea 	bl	8152c <_ZN10RingBufferC1Ev>
   80358:	2211      	movs	r2, #17
   8035a:	4613      	mov	r3, r2
   8035c:	f8cd 9000 	str.w	r9, [sp]
   80360:	f8cd 8004 	str.w	r8, [sp, #4]
   80364:	4913      	ldr	r1, [pc, #76]	; (803b4 <_GLOBAL__sub_I_g_APinDescription+0xb4>)
   80366:	4814      	ldr	r0, [pc, #80]	; (803b8 <_GLOBAL__sub_I_g_APinDescription+0xb8>)
   80368:	f000 fb44 	bl	809f4 <_ZN10USARTClassC1EP5Usart4IRQnmP10RingBufferS4_>
   8036c:	2212      	movs	r2, #18
   8036e:	4613      	mov	r3, r2
   80370:	9700      	str	r7, [sp, #0]
   80372:	9601      	str	r6, [sp, #4]
   80374:	4911      	ldr	r1, [pc, #68]	; (803bc <_GLOBAL__sub_I_g_APinDescription+0xbc>)
   80376:	4812      	ldr	r0, [pc, #72]	; (803c0 <_GLOBAL__sub_I_g_APinDescription+0xc0>)
   80378:	f000 fb3c 	bl	809f4 <_ZN10USARTClassC1EP5Usart4IRQnmP10RingBufferS4_>
   8037c:	2214      	movs	r2, #20
   8037e:	9500      	str	r5, [sp, #0]
   80380:	9401      	str	r4, [sp, #4]
   80382:	4910      	ldr	r1, [pc, #64]	; (803c4 <_GLOBAL__sub_I_g_APinDescription+0xc4>)
   80384:	4613      	mov	r3, r2
   80386:	4810      	ldr	r0, [pc, #64]	; (803c8 <_GLOBAL__sub_I_g_APinDescription+0xc8>)
   80388:	f000 fb34 	bl	809f4 <_ZN10USARTClassC1EP5Usart4IRQnmP10RingBufferS4_>
   8038c:	b003      	add	sp, #12
   8038e:	e8bd 83f0 	ldmia.w	sp!, {r4, r5, r6, r7, r8, r9, pc}
   80392:	bf00      	nop
   80394:	20070a24 	andcs	r0, r7, r4, lsr #20
   80398:	20070978 	andcs	r0, r7, r8, ror r9
   8039c:	400e0800 	andmi	r0, lr, r0, lsl #16
   803a0:	20070d0c 	andcs	r0, r7, ip, lsl #26
   803a4:	20070a00 	andcs	r0, r7, r0, lsl #20
   803a8:	20070d94 	mulcs	r7, r4, sp
   803ac:	20070b24 	andcs	r0, r7, r4, lsr #22
   803b0:	20070bac 	andcs	r0, r7, ip, lsr #23
   803b4:	40098000 	andmi	r8, r9, r0
   803b8:	20070aac 	andcs	r0, r7, ip, lsr #21
   803bc:	4009c000 	andmi	ip, r9, r0
   803c0:	20070ad4 	ldrdcs	r0, [r7], -r4
   803c4:	400a4000 	andmi	r4, sl, r0
   803c8:	20070afc 	strdcs	r0, [r7], -ip
   803cc:	20070c84 	andcs	r0, r7, r4, lsl #25
   803d0:	200708f0 	strdcs	r0, [r7], -r0	; <UNPREDICTABLE>

000803d4 <_Z14serialEventRunv>:
   803d4:	b508      	push	{r3, lr}
   803d6:	480c      	ldr	r0, [pc, #48]	; (80408 <_Z14serialEventRunv+0x34>)
   803d8:	f000 ffa6 	bl	81328 <_ZN9UARTClass9availableEv>
   803dc:	b108      	cbz	r0, 803e2 <_Z14serialEventRunv+0xe>
   803de:	f7ff fedd 	bl	8019c <_Z11serialEventv>
   803e2:	480a      	ldr	r0, [pc, #40]	; (8040c <_Z14serialEventRunv+0x38>)
   803e4:	f000 ffa0 	bl	81328 <_ZN9UARTClass9availableEv>
   803e8:	b108      	cbz	r0, 803ee <_Z14serialEventRunv+0x1a>
   803ea:	f7ff fedf 	bl	801ac <_Z12serialEvent1v>
   803ee:	4808      	ldr	r0, [pc, #32]	; (80410 <_Z14serialEventRunv+0x3c>)
   803f0:	f000 ff9a 	bl	81328 <_ZN9UARTClass9availableEv>
   803f4:	b108      	cbz	r0, 803fa <_Z14serialEventRunv+0x26>
   803f6:	f7ff feda 	bl	801ae <_Z12serialEvent2v>
   803fa:	4806      	ldr	r0, [pc, #24]	; (80414 <_Z14serialEventRunv+0x40>)
   803fc:	f000 ff94 	bl	81328 <_ZN9UARTClass9availableEv>
   80400:	b108      	cbz	r0, 80406 <_Z14serialEventRunv+0x32>
   80402:	f7ff fed5 	bl	801b0 <_Z12serialEvent3v>
   80406:	bd08      	pop	{r3, pc}
   80408:	20070a00 	andcs	r0, r7, r0, lsl #20
   8040c:	20070aac 	andcs	r0, r7, ip, lsr #21
   80410:	20070ad4 	ldrdcs	r0, [r7], -r4
   80414:	20070afc 	strdcs	r0, [r7], -ip

00080418 <PIO_PullUp>:
   80418:	b10a      	cbz	r2, 8041e <PIO_PullUp+0x6>
   8041a:	6641      	str	r1, [r0, #100]	; 0x64
   8041c:	4770      	bx	lr
   8041e:	6601      	str	r1, [r0, #96]	; 0x60
   80420:	4770      	bx	lr

00080422 <PIO_SetPeripheral>:
   80422:	6442      	str	r2, [r0, #68]	; 0x44
   80424:	2905      	cmp	r1, #5
   80426:	d80d      	bhi.n	80444 <PIO_SetPeripheral+0x22>
   80428:	e8df f001 	tbb	[pc, r1]
   8042c:	0d09030d 	stceq	3, cr0, [r9, #-52]	; 0xffffffcc
   80430:	6f030d0d 	svcvs	0x00030d0d
   80434:	6f01      	ldr	r1, [r0, #112]	; 0x70
   80436:	400b      	ands	r3, r1
   80438:	ea23 0302 	bic.w	r3, r3, r2
   8043c:	e001      	b.n	80442 <PIO_SetPeripheral+0x20>
   8043e:	6f03      	ldr	r3, [r0, #112]	; 0x70
   80440:	4313      	orrs	r3, r2
   80442:	6703      	str	r3, [r0, #112]	; 0x70
   80444:	6042      	str	r2, [r0, #4]
   80446:	4770      	bx	lr

00080448 <PIO_SetInput>:
   80448:	07d3      	lsls	r3, r2, #31
   8044a:	6441      	str	r1, [r0, #68]	; 0x44
   8044c:	bf4c      	ite	mi
   8044e:	6641      	strmi	r1, [r0, #100]	; 0x64
   80450:	6601      	strpl	r1, [r0, #96]	; 0x60
   80452:	f012 0f0a 	tst.w	r2, #10
   80456:	bf14      	ite	ne
   80458:	6201      	strne	r1, [r0, #32]
   8045a:	6241      	streq	r1, [r0, #36]	; 0x24
   8045c:	0793      	lsls	r3, r2, #30
   8045e:	d401      	bmi.n	80464 <PIO_SetInput+0x1c>
   80460:	0713      	lsls	r3, r2, #28
   80462:	d501      	bpl.n	80468 <PIO_SetInput+0x20>
   80464:	f8c0 1080 	str.w	r1, [r0, #128]	; 0x80
   80468:	6141      	str	r1, [r0, #20]
   8046a:	6001      	str	r1, [r0, #0]
   8046c:	4770      	bx	lr

0008046e <PIO_SetOutput>:
   8046e:	b510      	push	{r4, lr}
   80470:	9c02      	ldr	r4, [sp, #8]
   80472:	6441      	str	r1, [r0, #68]	; 0x44
   80474:	b10c      	cbz	r4, 8047a <PIO_SetOutput+0xc>
   80476:	6641      	str	r1, [r0, #100]	; 0x64
   80478:	e000      	b.n	8047c <PIO_SetOutput+0xe>
   8047a:	6601      	str	r1, [r0, #96]	; 0x60
   8047c:	b10b      	cbz	r3, 80482 <PIO_SetOutput+0x14>
   8047e:	6501      	str	r1, [r0, #80]	; 0x50
   80480:	e000      	b.n	80484 <PIO_SetOutput+0x16>
   80482:	6541      	str	r1, [r0, #84]	; 0x54
   80484:	b10a      	cbz	r2, 8048a <PIO_SetOutput+0x1c>
   80486:	6301      	str	r1, [r0, #48]	; 0x30
   80488:	e000      	b.n	8048c <PIO_SetOutput+0x1e>
   8048a:	6341      	str	r1, [r0, #52]	; 0x34
   8048c:	6101      	str	r1, [r0, #16]
   8048e:	6001      	str	r1, [r0, #0]
   80490:	bd10      	pop	{r4, pc}
	...

00080494 <PIO_Configure>:
   80494:	b5f7      	push	{r0, r1, r2, r4, r5, r6, r7, lr}
   80496:	461e      	mov	r6, r3
   80498:	1e4b      	subs	r3, r1, #1
   8049a:	4605      	mov	r5, r0
   8049c:	460f      	mov	r7, r1
   8049e:	4614      	mov	r4, r2
   804a0:	2b04      	cmp	r3, #4
   804a2:	d81f      	bhi.n	804e4 <PIO_Configure+0x50>
   804a4:	e8df f003 	tbb	[pc, r3]
   804a8:	120c0303 	andne	r0, ip, #201326592	; 0xc000000
   804ac:	46220012 			; <UNDEFINED> instruction: 0x46220012
   804b0:	4b0e      	ldr	r3, [pc, #56]	; (804ec <PIO_Configure+0x58>)
   804b2:	4798      	blx	r3
   804b4:	07f2      	lsls	r2, r6, #31
   804b6:	646c      	str	r4, [r5, #68]	; 0x44
   804b8:	bf4c      	ite	mi
   804ba:	666c      	strmi	r4, [r5, #100]	; 0x64
   804bc:	662c      	strpl	r4, [r5, #96]	; 0x60
   804be:	e003      	b.n	804c8 <PIO_Configure+0x34>
   804c0:	4621      	mov	r1, r4
   804c2:	4632      	mov	r2, r6
   804c4:	4b0a      	ldr	r3, [pc, #40]	; (804f0 <PIO_Configure+0x5c>)
   804c6:	4798      	blx	r3
   804c8:	2001      	movs	r0, #1
   804ca:	e00c      	b.n	804e6 <PIO_Configure+0x52>
   804cc:	f006 0301 	and.w	r3, r6, #1
   804d0:	9300      	str	r3, [sp, #0]
   804d2:	1f7b      	subs	r3, r7, #5
   804d4:	425a      	negs	r2, r3
   804d6:	4621      	mov	r1, r4
   804d8:	415a      	adcs	r2, r3
   804da:	4c06      	ldr	r4, [pc, #24]	; (804f4 <PIO_Configure+0x60>)
   804dc:	f3c6 0380 	ubfx	r3, r6, #2, #1
   804e0:	47a0      	blx	r4
   804e2:	e7f1      	b.n	804c8 <PIO_Configure+0x34>
   804e4:	2000      	movs	r0, #0
   804e6:	b003      	add	sp, #12
   804e8:	bdf0      	pop	{r4, r5, r6, r7, pc}
   804ea:	bf00      	nop
   804ec:	00080423 	andeq	r0, r8, r3, lsr #8
   804f0:	00080449 	andeq	r0, r8, r9, asr #8
   804f4:	0008046f 	andeq	r0, r8, pc, ror #8

000804f8 <PIO_GetOutputDataStatus>:
   804f8:	4603      	mov	r3, r0
   804fa:	6880      	ldr	r0, [r0, #8]
   804fc:	4008      	ands	r0, r1
   804fe:	d004      	beq.n	8050a <PIO_GetOutputDataStatus+0x12>
   80500:	699b      	ldr	r3, [r3, #24]
   80502:	4219      	tst	r1, r3
   80504:	bf0c      	ite	eq
   80506:	2000      	moveq	r0, #0
   80508:	2001      	movne	r0, #1
   8050a:	4770      	bx	lr

0008050c <pmc_enable_upll_clock>:
   8050c:	4b03      	ldr	r3, [pc, #12]	; (8051c <pmc_enable_upll_clock+0x10>)
   8050e:	f44f 1244 	mov.w	r2, #3211264	; 0x310000
   80512:	61da      	str	r2, [r3, #28]
   80514:	6e9a      	ldr	r2, [r3, #104]	; 0x68
   80516:	0652      	lsls	r2, r2, #25
   80518:	d5fc      	bpl.n	80514 <pmc_enable_upll_clock+0x8>
   8051a:	4770      	bx	lr
   8051c:	400e0600 	andmi	r0, lr, r0, lsl #12

00080520 <pmc_enable_periph_clk>:
   80520:	282c      	cmp	r0, #44	; 0x2c
   80522:	d819      	bhi.n	80558 <pmc_enable_periph_clk+0x38>
   80524:	281f      	cmp	r0, #31
   80526:	4b0e      	ldr	r3, [pc, #56]	; (80560 <pmc_enable_periph_clk+0x40>)
   80528:	f04f 0201 	mov.w	r2, #1
   8052c:	d808      	bhi.n	80540 <pmc_enable_periph_clk+0x20>
   8052e:	fa02 f000 	lsl.w	r0, r2, r0
   80532:	6999      	ldr	r1, [r3, #24]
   80534:	ea00 0201 	and.w	r2, r0, r1
   80538:	4282      	cmp	r2, r0
   8053a:	d00f      	beq.n	8055c <pmc_enable_periph_clk+0x3c>
   8053c:	6118      	str	r0, [r3, #16]
   8053e:	e00d      	b.n	8055c <pmc_enable_periph_clk+0x3c>
   80540:	3820      	subs	r0, #32
   80542:	fa02 f000 	lsl.w	r0, r2, r0
   80546:	f8d3 1108 	ldr.w	r1, [r3, #264]	; 0x108
   8054a:	ea00 0201 	and.w	r2, r0, r1
   8054e:	4282      	cmp	r2, r0
   80550:	d004      	beq.n	8055c <pmc_enable_periph_clk+0x3c>
   80552:	f8c3 0100 	str.w	r0, [r3, #256]	; 0x100
   80556:	e001      	b.n	8055c <pmc_enable_periph_clk+0x3c>
   80558:	2001      	movs	r0, #1
   8055a:	4770      	bx	lr
   8055c:	2000      	movs	r0, #0
   8055e:	4770      	bx	lr
   80560:	400e0600 	andmi	r0, lr, r0, lsl #12

00080564 <pmc_disable_periph_clk>:
   80564:	282c      	cmp	r0, #44	; 0x2c
   80566:	d817      	bhi.n	80598 <pmc_disable_periph_clk+0x34>
   80568:	281f      	cmp	r0, #31
   8056a:	4b0d      	ldr	r3, [pc, #52]	; (805a0 <pmc_disable_periph_clk+0x3c>)
   8056c:	f04f 0101 	mov.w	r1, #1
   80570:	d807      	bhi.n	80582 <pmc_disable_periph_clk+0x1e>
   80572:	fa01 f000 	lsl.w	r0, r1, r0
   80576:	699a      	ldr	r2, [r3, #24]
   80578:	4002      	ands	r2, r0
   8057a:	4282      	cmp	r2, r0
   8057c:	d10e      	bne.n	8059c <pmc_disable_periph_clk+0x38>
   8057e:	615a      	str	r2, [r3, #20]
   80580:	e00c      	b.n	8059c <pmc_disable_periph_clk+0x38>
   80582:	3820      	subs	r0, #32
   80584:	fa01 f000 	lsl.w	r0, r1, r0
   80588:	f8d3 2108 	ldr.w	r2, [r3, #264]	; 0x108
   8058c:	4002      	ands	r2, r0
   8058e:	4282      	cmp	r2, r0
   80590:	d104      	bne.n	8059c <pmc_disable_periph_clk+0x38>
   80592:	f8c3 2104 	str.w	r2, [r3, #260]	; 0x104
   80596:	e001      	b.n	8059c <pmc_disable_periph_clk+0x38>
   80598:	2001      	movs	r0, #1
   8059a:	4770      	bx	lr
   8059c:	2000      	movs	r0, #0
   8059e:	4770      	bx	lr
   805a0:	400e0600 	andmi	r0, lr, r0, lsl #12

000805a4 <pmc_switch_udpck_to_upllck>:
   805a4:	0200      	lsls	r0, r0, #8
   805a6:	f400 6270 	and.w	r2, r0, #3840	; 0xf00
   805aa:	4b02      	ldr	r3, [pc, #8]	; (805b4 <pmc_switch_udpck_to_upllck+0x10>)
   805ac:	f042 0201 	orr.w	r2, r2, #1
   805b0:	639a      	str	r2, [r3, #56]	; 0x38
   805b2:	4770      	bx	lr
   805b4:	400e0600 	andmi	r0, lr, r0, lsl #12

000805b8 <pmc_enable_udpck>:
   805b8:	4b01      	ldr	r3, [pc, #4]	; (805c0 <pmc_enable_udpck+0x8>)
   805ba:	2220      	movs	r2, #32
   805bc:	601a      	str	r2, [r3, #0]
   805be:	4770      	bx	lr
   805c0:	400e0600 	andmi	r0, lr, r0, lsl #12

000805c4 <SystemInit>:
   805c4:	4a1a      	ldr	r2, [pc, #104]	; (80630 <SystemInit+0x6c>)
   805c6:	f44f 6380 	mov.w	r3, #1024	; 0x400
   805ca:	6013      	str	r3, [r2, #0]
   805cc:	f8c2 3200 	str.w	r3, [r2, #512]	; 0x200
   805d0:	4b18      	ldr	r3, [pc, #96]	; (80634 <SystemInit+0x70>)
   805d2:	6a1a      	ldr	r2, [r3, #32]
   805d4:	01d2      	lsls	r2, r2, #7
   805d6:	d502      	bpl.n	805de <SystemInit+0x1a>
   805d8:	4a17      	ldr	r2, [pc, #92]	; (80638 <SystemInit+0x74>)
   805da:	621a      	str	r2, [r3, #32]
   805dc:	e005      	b.n	805ea <SystemInit+0x26>
   805de:	4a17      	ldr	r2, [pc, #92]	; (8063c <SystemInit+0x78>)
   805e0:	621a      	str	r2, [r3, #32]
   805e2:	6e9a      	ldr	r2, [r3, #104]	; 0x68
   805e4:	07d0      	lsls	r0, r2, #31
   805e6:	d5fc      	bpl.n	805e2 <SystemInit+0x1e>
   805e8:	e7f6      	b.n	805d8 <SystemInit+0x14>
   805ea:	6e99      	ldr	r1, [r3, #104]	; 0x68
   805ec:	4a11      	ldr	r2, [pc, #68]	; (80634 <SystemInit+0x70>)
   805ee:	03c9      	lsls	r1, r1, #15
   805f0:	d5fb      	bpl.n	805ea <SystemInit+0x26>
   805f2:	6b11      	ldr	r1, [r2, #48]	; 0x30
   805f4:	f021 0103 	bic.w	r1, r1, #3
   805f8:	f041 0101 	orr.w	r1, r1, #1
   805fc:	6311      	str	r1, [r2, #48]	; 0x30
   805fe:	6e9a      	ldr	r2, [r3, #104]	; 0x68
   80600:	0712      	lsls	r2, r2, #28
   80602:	d5fc      	bpl.n	805fe <SystemInit+0x3a>
   80604:	490e      	ldr	r1, [pc, #56]	; (80640 <SystemInit+0x7c>)
   80606:	4a0b      	ldr	r2, [pc, #44]	; (80634 <SystemInit+0x70>)
   80608:	6291      	str	r1, [r2, #40]	; 0x28
   8060a:	6e9a      	ldr	r2, [r3, #104]	; 0x68
   8060c:	0790      	lsls	r0, r2, #30
   8060e:	d5fc      	bpl.n	8060a <SystemInit+0x46>
   80610:	4a08      	ldr	r2, [pc, #32]	; (80634 <SystemInit+0x70>)
   80612:	2111      	movs	r1, #17
   80614:	6311      	str	r1, [r2, #48]	; 0x30
   80616:	6e9a      	ldr	r2, [r3, #104]	; 0x68
   80618:	0711      	lsls	r1, r2, #28
   8061a:	d5fc      	bpl.n	80616 <SystemInit+0x52>
   8061c:	4a05      	ldr	r2, [pc, #20]	; (80634 <SystemInit+0x70>)
   8061e:	2112      	movs	r1, #18
   80620:	6311      	str	r1, [r2, #48]	; 0x30
   80622:	6e9a      	ldr	r2, [r3, #104]	; 0x68
   80624:	0712      	lsls	r2, r2, #28
   80626:	d5fc      	bpl.n	80622 <SystemInit+0x5e>
   80628:	4a06      	ldr	r2, [pc, #24]	; (80644 <SystemInit+0x80>)
   8062a:	4b07      	ldr	r3, [pc, #28]	; (80648 <SystemInit+0x84>)
   8062c:	601a      	str	r2, [r3, #0]
   8062e:	4770      	bx	lr
   80630:	400e0a00 	andmi	r0, lr, r0, lsl #20
   80634:	400e0600 	andmi	r0, lr, r0, lsl #12
   80638:	01370809 	teqeq	r7, r9, lsl #16
   8063c:	00370809 	eorseq	r0, r7, r9, lsl #16
   80640:	200d3f01 	andcs	r3, sp, r1, lsl #30
   80644:	0501bd00 	streq	fp, [r1, #-3328]	; 0xfffff300
   80648:	2007002c 	andcs	r0, r7, ip, lsr #32

0008064c <Reset_Handler>:
   8064c:	4b15      	ldr	r3, [pc, #84]	; (806a4 <Reset_Handler+0x58>)
   8064e:	4a16      	ldr	r2, [pc, #88]	; (806a8 <Reset_Handler+0x5c>)
   80650:	b510      	push	{r4, lr}
   80652:	4293      	cmp	r3, r2
   80654:	461c      	mov	r4, r3
   80656:	d001      	beq.n	8065c <Reset_Handler+0x10>
   80658:	2300      	movs	r3, #0
   8065a:	e001      	b.n	80660 <Reset_Handler+0x14>
   8065c:	4b13      	ldr	r3, [pc, #76]	; (806ac <Reset_Handler+0x60>)
   8065e:	e007      	b.n	80670 <Reset_Handler+0x24>
   80660:	4913      	ldr	r1, [pc, #76]	; (806b0 <Reset_Handler+0x64>)
   80662:	18d0      	adds	r0, r2, r3
   80664:	4288      	cmp	r0, r1
   80666:	d2f9      	bcs.n	8065c <Reset_Handler+0x10>
   80668:	58e1      	ldr	r1, [r4, r3]
   8066a:	50d1      	str	r1, [r2, r3]
   8066c:	3304      	adds	r3, #4
   8066e:	e7f7      	b.n	80660 <Reset_Handler+0x14>
   80670:	4a10      	ldr	r2, [pc, #64]	; (806b4 <Reset_Handler+0x68>)
   80672:	4293      	cmp	r3, r2
   80674:	d203      	bcs.n	8067e <Reset_Handler+0x32>
   80676:	2200      	movs	r2, #0
   80678:	f843 2b04 	str.w	r2, [r3], #4
   8067c:	e7f8      	b.n	80670 <Reset_Handler+0x24>
   8067e:	490e      	ldr	r1, [pc, #56]	; (806b8 <Reset_Handler+0x6c>)
   80680:	4b0e      	ldr	r3, [pc, #56]	; (806bc <Reset_Handler+0x70>)
   80682:	f021 4260 	bic.w	r2, r1, #3758096384	; 0xe0000000
   80686:	f101 4160 	add.w	r1, r1, #3758096384	; 0xe0000000
   8068a:	f022 027f 	bic.w	r2, r2, #127	; 0x7f
   8068e:	f5b1 1f80 	cmp.w	r1, #1048576	; 0x100000
   80692:	609a      	str	r2, [r3, #8]
   80694:	d203      	bcs.n	8069e <Reset_Handler+0x52>
   80696:	689a      	ldr	r2, [r3, #8]
   80698:	f042 5200 	orr.w	r2, r2, #536870912	; 0x20000000
   8069c:	609a      	str	r2, [r3, #8]
   8069e:	4b08      	ldr	r3, [pc, #32]	; (806c0 <Reset_Handler+0x74>)
   806a0:	4798      	blx	r3
   806a2:	e7fe      	b.n	806a2 <Reset_Handler+0x56>
   806a4:	00085588 	andeq	r5, r8, r8, lsl #11
   806a8:	20070000 	andcs	r0, r7, r0
   806ac:	200708d4 	ldrdcs	r0, [r7], -r4
   806b0:	200708d4 	ldrdcs	r0, [r7], -r4
   806b4:	200710fc 	strdcs	r1, [r7], -ip
   806b8:	00080000 	andeq	r0, r8, r0
   806bc:	e000ed00 	and	lr, r0, r0, lsl #26
   806c0:	00080165 	andeq	r0, r8, r5, ror #2

000806c4 <adc_init>:
   806c4:	e92d 41f0 	stmdb	sp!, {r4, r5, r6, r7, r8, lr}
   806c8:	4d22      	ldr	r5, [pc, #136]	; (80754 <adc_init+0x90>)
   806ca:	b090      	sub	sp, #64	; 0x40
   806cc:	466c      	mov	r4, sp
   806ce:	4606      	mov	r6, r0
   806d0:	460f      	mov	r7, r1
   806d2:	4690      	mov	r8, r2
   806d4:	469c      	mov	ip, r3
   806d6:	cd0f      	ldmia	r5!, {r0, r1, r2, r3}
   806d8:	c40f      	stmia	r4!, {r0, r1, r2, r3}
   806da:	cd0f      	ldmia	r5!, {r0, r1, r2, r3}
   806dc:	c40f      	stmia	r4!, {r0, r1, r2, r3}
   806de:	cd0f      	ldmia	r5!, {r0, r1, r2, r3}
   806e0:	c40f      	stmia	r4!, {r0, r1, r2, r3}
   806e2:	e895 000f 	ldmia.w	r5, {r0, r1, r2, r3}
   806e6:	e884 000f 	stmia.w	r4, {r0, r1, r2, r3}
   806ea:	2301      	movs	r3, #1
   806ec:	6033      	str	r3, [r6, #0]
   806ee:	2100      	movs	r1, #0
   806f0:	ea4f 0248 	mov.w	r2, r8, lsl #1
   806f4:	f240 2302 	movw	r3, #514	; 0x202
   806f8:	6071      	str	r1, [r6, #4]
   806fa:	f8c6 3120 	str.w	r3, [r6, #288]	; 0x120
   806fe:	f8c6 1104 	str.w	r1, [r6, #260]	; 0x104
   80702:	f8c6 1114 	str.w	r1, [r6, #276]	; 0x114
   80706:	fbb7 f1f2 	udiv	r1, r7, r2
   8070a:	fb02 7211 	mls	r2, r2, r1, r7
   8070e:	b902      	cbnz	r2, 80712 <adc_init+0x4e>
   80710:	3901      	subs	r1, #1
   80712:	1c4b      	adds	r3, r1, #1
   80714:	005b      	lsls	r3, r3, #1
   80716:	fbb7 f7f3 	udiv	r7, r7, r3
   8071a:	4b0f      	ldr	r3, [pc, #60]	; (80758 <adc_init+0x94>)
   8071c:	2200      	movs	r2, #0
   8071e:	fbb7 f7f3 	udiv	r7, r7, r3
   80722:	fb0c fc07 	mul.w	ip, ip, r7
   80726:	f85d 0022 	ldr.w	r0, [sp, r2, lsl #2]
   8072a:	4560      	cmp	r0, ip
   8072c:	d205      	bcs.n	8073a <adc_init+0x76>
   8072e:	3201      	adds	r2, #1
   80730:	2a10      	cmp	r2, #16
   80732:	d1f8      	bne.n	80726 <adc_init+0x62>
   80734:	f04f 30ff 	mov.w	r0, #4294967295	; 0xffffffff
   80738:	e009      	b.n	8074e <adc_init+0x8a>
   8073a:	6873      	ldr	r3, [r6, #4]
   8073c:	0209      	lsls	r1, r1, #8
   8073e:	b289      	uxth	r1, r1
   80740:	0412      	lsls	r2, r2, #16
   80742:	4319      	orrs	r1, r3
   80744:	f402 2270 	and.w	r2, r2, #983040	; 0xf0000
   80748:	430a      	orrs	r2, r1
   8074a:	6072      	str	r2, [r6, #4]
   8074c:	2000      	movs	r0, #0
   8074e:	b010      	add	sp, #64	; 0x40
   80750:	e8bd 81f0 	ldmia.w	sp!, {r4, r5, r6, r7, r8, pc}
   80754:	00085308 	andeq	r5, r8, r8, lsl #6
   80758:	000f4240 	andeq	r4, pc, r0, asr #4

0008075c <adc_configure_trigger>:
   8075c:	6843      	ldr	r3, [r0, #4]
   8075e:	01d2      	lsls	r2, r2, #7
   80760:	4319      	orrs	r1, r3
   80762:	b2d3      	uxtb	r3, r2
   80764:	4319      	orrs	r1, r3
   80766:	6041      	str	r1, [r0, #4]
   80768:	4770      	bx	lr

0008076a <adc_configure_timing>:
   8076a:	b510      	push	{r4, lr}
   8076c:	6844      	ldr	r4, [r0, #4]
   8076e:	0609      	lsls	r1, r1, #24
   80770:	4322      	orrs	r2, r4
   80772:	071b      	lsls	r3, r3, #28
   80774:	f001 6470 	and.w	r4, r1, #251658240	; 0xf000000
   80778:	4322      	orrs	r2, r4
   8077a:	f003 5340 	and.w	r3, r3, #805306368	; 0x30000000
   8077e:	431a      	orrs	r2, r3
   80780:	6042      	str	r2, [r0, #4]
   80782:	bd10      	pop	{r4, pc}

00080784 <adc_disable_channel>:
   80784:	2301      	movs	r3, #1
   80786:	fa03 f101 	lsl.w	r1, r3, r1
   8078a:	6141      	str	r1, [r0, #20]
   8078c:	4770      	bx	lr

0008078e <adc_disable_all_channel>:
   8078e:	f64f 73ff 	movw	r3, #65535	; 0xffff
   80792:	6143      	str	r3, [r0, #20]
   80794:	4770      	bx	lr

00080796 <adc_disable_interrupt>:
   80796:	6281      	str	r1, [r0, #40]	; 0x28
   80798:	4770      	bx	lr
	...

0008079c <UOTGHS_Handler>:
   8079c:	b508      	push	{r3, lr}
   8079e:	4b02      	ldr	r3, [pc, #8]	; (807a8 <UOTGHS_Handler+0xc>)
   807a0:	681b      	ldr	r3, [r3, #0]
   807a2:	b103      	cbz	r3, 807a6 <UOTGHS_Handler+0xa>
   807a4:	4798      	blx	r3
   807a6:	bd08      	pop	{r3, pc}
   807a8:	20070e1c 	andcs	r0, r7, ip, lsl lr

000807ac <analogOutputInit>:
   807ac:	4770      	bx	lr

000807ae <ADC_Handler>:
   807ae:	e7fe      	b.n	807ae <ADC_Handler>

000807b0 <SVC_Handler>:
   807b0:	f000 b810 	b.w	807d4 <pendSVHook>

000807b4 <PendSV_Handler>:
   807b4:	f000 b80e 	b.w	807d4 <pendSVHook>

000807b8 <SysTick_Handler>:
   807b8:	b508      	push	{r3, lr}
   807ba:	f000 f809 	bl	807d0 <sysTickHook>
   807be:	b928      	cbnz	r0, 807cc <SysTick_Handler+0x14>
   807c0:	f000 fede 	bl	81580 <tickReset>
   807c4:	e8bd 4008 	ldmia.w	sp!, {r3, lr}
   807c8:	f000 bf50 	b.w	8166c <TimeTick_Increment>
   807cc:	bd08      	pop	{r3, pc}

000807ce <yield>:
   807ce:	4770      	bx	lr

000807d0 <sysTickHook>:
   807d0:	2000      	movs	r0, #0
   807d2:	4770      	bx	lr

000807d4 <pendSVHook>:
   807d4:	e7fe      	b.n	807d4 <pendSVHook>

000807d6 <delay>:
   807d6:	b538      	push	{r3, r4, r5, lr}
   807d8:	4604      	mov	r4, r0
   807da:	b148      	cbz	r0, 807f0 <delay+0x1a>
   807dc:	f000 ff4e 	bl	8167c <GetTickCount>
   807e0:	4605      	mov	r5, r0
   807e2:	f7ff fff4 	bl	807ce <yield>
   807e6:	f000 ff49 	bl	8167c <GetTickCount>
   807ea:	1b40      	subs	r0, r0, r5
   807ec:	42a0      	cmp	r0, r4
   807ee:	d3f8      	bcc.n	807e2 <delay+0xc>
   807f0:	bd38      	pop	{r3, r4, r5, pc}
	...

000807f4 <_sbrk>:
   807f4:	4b04      	ldr	r3, [pc, #16]	; (80808 <_sbrk+0x14>)
   807f6:	681a      	ldr	r2, [r3, #0]
   807f8:	b90a      	cbnz	r2, 807fe <_sbrk+0xa>
   807fa:	4a04      	ldr	r2, [pc, #16]	; (8080c <_sbrk+0x18>)
   807fc:	601a      	str	r2, [r3, #0]
   807fe:	681a      	ldr	r2, [r3, #0]
   80800:	4410      	add	r0, r2
   80802:	6018      	str	r0, [r3, #0]
   80804:	4610      	mov	r0, r2
   80806:	4770      	bx	lr
   80808:	20070e20 	andcs	r0, r7, r0, lsr #28
   8080c:	200710fc 	strdcs	r1, [r7], -ip

00080810 <link>:
   80810:	f04f 30ff 	mov.w	r0, #4294967295	; 0xffffffff
   80814:	4770      	bx	lr

00080816 <_close>:
   80816:	f04f 30ff 	mov.w	r0, #4294967295	; 0xffffffff
   8081a:	4770      	bx	lr

0008081c <_fstat>:
   8081c:	f44f 5300 	mov.w	r3, #8192	; 0x2000
   80820:	604b      	str	r3, [r1, #4]
   80822:	2000      	movs	r0, #0
   80824:	4770      	bx	lr

00080826 <_isatty>:
   80826:	2001      	movs	r0, #1
   80828:	4770      	bx	lr

0008082a <_lseek>:
   8082a:	2000      	movs	r0, #0
   8082c:	4770      	bx	lr

0008082e <_read>:
   8082e:	2000      	movs	r0, #0
   80830:	4770      	bx	lr
	...

00080834 <_write>:
   80834:	b510      	push	{r4, lr}
   80836:	2300      	movs	r3, #0
   80838:	4293      	cmp	r3, r2
   8083a:	da07      	bge.n	8084c <_write+0x18>
   8083c:	4805      	ldr	r0, [pc, #20]	; (80854 <_write+0x20>)
   8083e:	6944      	ldr	r4, [r0, #20]
   80840:	07a4      	lsls	r4, r4, #30
   80842:	d5fb      	bpl.n	8083c <_write+0x8>
   80844:	5ccc      	ldrb	r4, [r1, r3]
   80846:	3301      	adds	r3, #1
   80848:	61c4      	str	r4, [r0, #28]
   8084a:	e7f5      	b.n	80838 <_write+0x4>
   8084c:	ea22 70e2 	bic.w	r0, r2, r2, asr #31
   80850:	bd10      	pop	{r4, pc}
   80852:	bf00      	nop
   80854:	400e0800 	andmi	r0, lr, r0, lsl #16

00080858 <_exit>:
   80858:	4601      	mov	r1, r0
   8085a:	b508      	push	{r3, lr}
   8085c:	4801      	ldr	r0, [pc, #4]	; (80864 <_exit+0xc>)
   8085e:	f001 f911 	bl	81a84 <iprintf>
   80862:	e7fe      	b.n	80862 <_exit+0xa>
   80864:	00085348 	andeq	r5, r8, r8, asr #6

00080868 <_kill>:
   80868:	4770      	bx	lr

0008086a <_getpid>:
   8086a:	f04f 30ff 	mov.w	r0, #4294967295	; 0xffffffff
   8086e:	4770      	bx	lr

00080870 <pinMode>:
   80870:	e92d 41f0 	stmdb	sp!, {r4, r5, r6, r7, r8, lr}
   80874:	4e3d      	ldr	r6, [pc, #244]	; (8096c <pinMode+0xfc>)
   80876:	231c      	movs	r3, #28
   80878:	fb03 6300 	mla	r3, r3, r0, r6
   8087c:	7b1a      	ldrb	r2, [r3, #12]
   8087e:	4604      	mov	r4, r0
   80880:	460f      	mov	r7, r1
   80882:	2a00      	cmp	r2, #0
   80884:	d070      	beq.n	80968 <pinMode+0xf8>
   80886:	4d3a      	ldr	r5, [pc, #232]	; (80970 <pinMode+0x100>)
   80888:	5c2a      	ldrb	r2, [r5, r0]
   8088a:	f002 020f 	and.w	r2, r2, #15
   8088e:	2a04      	cmp	r2, #4
   80890:	d103      	bne.n	8089a <pinMode+0x2a>
   80892:	4838      	ldr	r0, [pc, #224]	; (80974 <pinMode+0x104>)
   80894:	7e59      	ldrb	r1, [r3, #25]
   80896:	f7ff ff75 	bl	80784 <adc_disable_channel>
   8089a:	5d2a      	ldrb	r2, [r5, r4]
   8089c:	f002 030f 	and.w	r3, r2, #15
   808a0:	2b02      	cmp	r3, #2
   808a2:	dc11      	bgt.n	808c8 <pinMode+0x58>
   808a4:	b182      	cbz	r2, 808c8 <pinMode+0x58>
   808a6:	2b02      	cmp	r3, #2
   808a8:	d102      	bne.n	808b0 <pinMode+0x40>
   808aa:	b96f      	cbnz	r7, 808c8 <pinMode+0x58>
   808ac:	e8bd 81f0 	ldmia.w	sp!, {r4, r5, r6, r7, r8, pc}
   808b0:	2b01      	cmp	r3, #1
   808b2:	d103      	bne.n	808bc <pinMode+0x4c>
   808b4:	2f02      	cmp	r7, #2
   808b6:	d107      	bne.n	808c8 <pinMode+0x58>
   808b8:	e8bd 81f0 	ldmia.w	sp!, {r4, r5, r6, r7, r8, pc}
   808bc:	2b03      	cmp	r3, #3
   808be:	d103      	bne.n	808c8 <pinMode+0x58>
   808c0:	2f01      	cmp	r7, #1
   808c2:	d103      	bne.n	808cc <pinMode+0x5c>
   808c4:	e8bd 81f0 	ldmia.w	sp!, {r4, r5, r6, r7, r8, pc}
   808c8:	2f01      	cmp	r7, #1
   808ca:	d032      	beq.n	80932 <pinMode+0xc2>
   808cc:	b11f      	cbz	r7, 808d6 <pinMode+0x66>
   808ce:	2f02      	cmp	r7, #2
   808d0:	d017      	beq.n	80902 <pinMode+0x92>
   808d2:	e8bd 81f0 	ldmia.w	sp!, {r4, r5, r6, r7, r8, pc}
   808d6:	f04f 081c 	mov.w	r8, #28
   808da:	fb08 f804 	mul.w	r8, r8, r4
   808de:	eb06 0708 	add.w	r7, r6, r8
   808e2:	68b8      	ldr	r0, [r7, #8]
   808e4:	f7ff fe1c 	bl	80520 <pmc_enable_periph_clk>
   808e8:	2300      	movs	r3, #0
   808ea:	f856 0008 	ldr.w	r0, [r6, r8]
   808ee:	2103      	movs	r1, #3
   808f0:	687a      	ldr	r2, [r7, #4]
   808f2:	f7ff fdcf 	bl	80494 <PIO_Configure>
   808f6:	5d2b      	ldrb	r3, [r5, r4]
   808f8:	f023 030f 	bic.w	r3, r3, #15
   808fc:	f043 0302 	orr.w	r3, r3, #2
   80900:	e014      	b.n	8092c <pinMode+0xbc>
   80902:	f04f 081c 	mov.w	r8, #28
   80906:	fb08 f804 	mul.w	r8, r8, r4
   8090a:	eb06 0708 	add.w	r7, r6, r8
   8090e:	68b8      	ldr	r0, [r7, #8]
   80910:	f7ff fe06 	bl	80520 <pmc_enable_periph_clk>
   80914:	2301      	movs	r3, #1
   80916:	f856 0008 	ldr.w	r0, [r6, r8]
   8091a:	2103      	movs	r1, #3
   8091c:	687a      	ldr	r2, [r7, #4]
   8091e:	f7ff fdb9 	bl	80494 <PIO_Configure>
   80922:	5d2b      	ldrb	r3, [r5, r4]
   80924:	f023 030f 	bic.w	r3, r3, #15
   80928:	f043 0301 	orr.w	r3, r3, #1
   8092c:	552b      	strb	r3, [r5, r4]
   8092e:	e8bd 81f0 	ldmia.w	sp!, {r4, r5, r6, r7, r8, pc}
   80932:	231c      	movs	r3, #28
   80934:	4363      	muls	r3, r4
   80936:	58f7      	ldr	r7, [r6, r3]
   80938:	0912      	lsrs	r2, r2, #4
   8093a:	441e      	add	r6, r3
   8093c:	bf0c      	ite	eq
   8093e:	2104      	moveq	r1, #4
   80940:	2105      	movne	r1, #5
   80942:	6933      	ldr	r3, [r6, #16]
   80944:	4638      	mov	r0, r7
   80946:	6872      	ldr	r2, [r6, #4]
   80948:	f7ff fda4 	bl	80494 <PIO_Configure>
   8094c:	5d2b      	ldrb	r3, [r5, r4]
   8094e:	f023 030f 	bic.w	r3, r3, #15
   80952:	f043 0303 	orr.w	r3, r3, #3
   80956:	552b      	strb	r3, [r5, r4]
   80958:	69bb      	ldr	r3, [r7, #24]
   8095a:	3301      	adds	r3, #1
   8095c:	d104      	bne.n	80968 <pinMode+0xf8>
   8095e:	68b0      	ldr	r0, [r6, #8]
   80960:	e8bd 41f0 	ldmia.w	sp!, {r4, r5, r6, r7, r8, lr}
   80964:	f7ff bdfe 	b.w	80564 <pmc_disable_periph_clk>
   80968:	e8bd 81f0 	ldmia.w	sp!, {r4, r5, r6, r7, r8, pc}
   8096c:	000848dc 	ldrdeq	r4, [r8], -ip
   80970:	20070c34 	andcs	r0, r7, r4, lsr ip
   80974:	400c0000 	andmi	r0, ip, r0

00080978 <digitalWrite>:
   80978:	b5f7      	push	{r0, r1, r2, r4, r5, r6, r7, lr}
   8097a:	4e19      	ldr	r6, [pc, #100]	; (809e0 <digitalWrite+0x68>)
   8097c:	231c      	movs	r3, #28
   8097e:	fb03 6300 	mla	r3, r3, r0, r6
   80982:	7b1b      	ldrb	r3, [r3, #12]
   80984:	4604      	mov	r4, r0
   80986:	460d      	mov	r5, r1
   80988:	b343      	cbz	r3, 809dc <digitalWrite+0x64>
   8098a:	4f16      	ldr	r7, [pc, #88]	; (809e4 <digitalWrite+0x6c>)
   8098c:	5c3b      	ldrb	r3, [r7, r0]
   8098e:	f003 030f 	and.w	r3, r3, #15
   80992:	2b05      	cmp	r3, #5
   80994:	d102      	bne.n	8099c <digitalWrite+0x24>
   80996:	2101      	movs	r1, #1
   80998:	f7ff ff6a 	bl	80870 <pinMode>
   8099c:	5d3b      	ldrb	r3, [r7, r4]
   8099e:	f003 030f 	and.w	r3, r3, #15
   809a2:	ea43 1305 	orr.w	r3, r3, r5, lsl #4
   809a6:	553b      	strb	r3, [r7, r4]
   809a8:	231c      	movs	r3, #28
   809aa:	435c      	muls	r4, r3
   809ac:	1933      	adds	r3, r6, r4
   809ae:	5936      	ldr	r6, [r6, r4]
   809b0:	685c      	ldr	r4, [r3, #4]
   809b2:	4630      	mov	r0, r6
   809b4:	4621      	mov	r1, r4
   809b6:	f7ff fd9f 	bl	804f8 <PIO_GetOutputDataStatus>
   809ba:	b938      	cbnz	r0, 809cc <digitalWrite+0x54>
   809bc:	4630      	mov	r0, r6
   809be:	4621      	mov	r1, r4
   809c0:	462a      	mov	r2, r5
   809c2:	b003      	add	sp, #12
   809c4:	e8bd 40f0 	ldmia.w	sp!, {r4, r5, r6, r7, lr}
   809c8:	f7ff bd26 	b.w	80418 <PIO_PullUp>
   809cc:	2301      	movs	r3, #1
   809ce:	9300      	str	r3, [sp, #0]
   809d0:	4630      	mov	r0, r6
   809d2:	4621      	mov	r1, r4
   809d4:	462a      	mov	r2, r5
   809d6:	2300      	movs	r3, #0
   809d8:	f7ff fd49 	bl	8046e <PIO_SetOutput>
   809dc:	b003      	add	sp, #12
   809de:	bdf0      	pop	{r4, r5, r6, r7, pc}
   809e0:	000848dc 	ldrdeq	r4, [r8], -ip
   809e4:	20070c34 	andcs	r0, r7, r4, lsr ip

000809e8 <_ZN9UARTClasscvbEv>:
   809e8:	2001      	movs	r0, #1
   809ea:	4770      	bx	lr

000809ec <_ZN10USARTClass5beginEm>:
   809ec:	f44f 620c 	mov.w	r2, #2240	; 0x8c0
   809f0:	f000 bd2c 	b.w	8144c <_ZN9UARTClass4initEmm>

000809f4 <_ZN10USARTClassC1EP5Usart4IRQnmP10RingBufferS4_>:
   809f4:	b573      	push	{r0, r1, r4, r5, r6, lr}
   809f6:	9d06      	ldr	r5, [sp, #24]
   809f8:	4604      	mov	r4, r0
   809fa:	9500      	str	r5, [sp, #0]
   809fc:	9d07      	ldr	r5, [sp, #28]
   809fe:	460e      	mov	r6, r1
   80a00:	9501      	str	r5, [sp, #4]
   80a02:	f000 fd11 	bl	81428 <_ZN9UARTClassC1EP4Uart4IRQnmP10RingBufferS4_>
   80a06:	4b03      	ldr	r3, [pc, #12]	; (80a14 <_ZN10USARTClassC1EP5Usart4IRQnmP10RingBufferS4_+0x20>)
   80a08:	4620      	mov	r0, r4
   80a0a:	6023      	str	r3, [r4, #0]
   80a0c:	6266      	str	r6, [r4, #36]	; 0x24
   80a0e:	b002      	add	sp, #8
   80a10:	bd70      	pop	{r4, r5, r6, pc}
   80a12:	bf00      	nop
   80a14:	00085370 	andeq	r5, r8, r0, ror r3

00080a18 <_ZL11USB_SendZlpv>:
   80a18:	4b06      	ldr	r3, [pc, #24]	; (80a34 <_ZL11USB_SendZlpv+0x1c>)
   80a1a:	f8d3 2130 	ldr.w	r2, [r3, #304]	; 0x130
   80a1e:	07d2      	lsls	r2, r2, #31
   80a20:	d403      	bmi.n	80a2a <_ZL11USB_SendZlpv+0x12>
   80a22:	685b      	ldr	r3, [r3, #4]
   80a24:	07d9      	lsls	r1, r3, #31
   80a26:	d403      	bmi.n	80a30 <_ZL11USB_SendZlpv+0x18>
   80a28:	e7f6      	b.n	80a18 <_ZL11USB_SendZlpv>
   80a2a:	2201      	movs	r2, #1
   80a2c:	f8c3 2160 	str.w	r2, [r3, #352]	; 0x160
   80a30:	4770      	bx	lr
   80a32:	bf00      	nop
   80a34:	400ac000 	andmi	ip, sl, r0

00080a38 <_Z14USBD_Availablem>:
   80a38:	b538      	push	{r3, r4, r5, lr}
   80a3a:	4b09      	ldr	r3, [pc, #36]	; (80a60 <_Z14USBD_Availablem+0x28>)
   80a3c:	681d      	ldr	r5, [r3, #0]
   80a3e:	b672      	cpsid	i
   80a40:	f3bf 8f5f 	dmb	sy
   80a44:	461c      	mov	r4, r3
   80a46:	f000 000f 	and.w	r0, r0, #15
   80a4a:	2300      	movs	r3, #0
   80a4c:	6023      	str	r3, [r4, #0]
   80a4e:	f000 ffaf 	bl	819b0 <UDD_FifoByteCount>
   80a52:	b125      	cbz	r5, 80a5e <_Z14USBD_Availablem+0x26>
   80a54:	2301      	movs	r3, #1
   80a56:	6023      	str	r3, [r4, #0]
   80a58:	f3bf 8f5f 	dmb	sy
   80a5c:	b662      	cpsie	i
   80a5e:	bd38      	pop	{r3, r4, r5, pc}
   80a60:	20070068 	andcs	r0, r7, r8, rrx

00080a64 <_Z9USBD_RecvmPvm>:
   80a64:	e92d 43f8 	stmdb	sp!, {r3, r4, r5, r6, r7, r8, r9, lr}
   80a68:	4b1b      	ldr	r3, [pc, #108]	; (80ad8 <_Z9USBD_RecvmPvm+0x74>)
   80a6a:	4689      	mov	r9, r1
   80a6c:	681b      	ldr	r3, [r3, #0]
   80a6e:	4615      	mov	r5, r2
   80a70:	b33b      	cbz	r3, 80ac2 <_Z9USBD_RecvmPvm+0x5e>
   80a72:	4b1a      	ldr	r3, [pc, #104]	; (80adc <_Z9USBD_RecvmPvm+0x78>)
   80a74:	f8d3 8000 	ldr.w	r8, [r3]
   80a78:	b672      	cpsid	i
   80a7a:	f3bf 8f5f 	dmb	sy
   80a7e:	f000 040f 	and.w	r4, r0, #15
   80a82:	2600      	movs	r6, #0
   80a84:	4620      	mov	r0, r4
   80a86:	461f      	mov	r7, r3
   80a88:	601e      	str	r6, [r3, #0]
   80a8a:	f000 ff91 	bl	819b0 <UDD_FifoByteCount>
   80a8e:	42a8      	cmp	r0, r5
   80a90:	bf38      	it	cc
   80a92:	4605      	movcc	r5, r0
   80a94:	42ae      	cmp	r6, r5
   80a96:	d006      	beq.n	80aa6 <_Z9USBD_RecvmPvm+0x42>
   80a98:	4620      	mov	r0, r4
   80a9a:	f000 ff51 	bl	81940 <UDD_Recv8>
   80a9e:	f809 0006 	strb.w	r0, [r9, r6]
   80aa2:	3601      	adds	r6, #1
   80aa4:	e7f6      	b.n	80a94 <_Z9USBD_RecvmPvm+0x30>
   80aa6:	b11d      	cbz	r5, 80ab0 <_Z9USBD_RecvmPvm+0x4c>
   80aa8:	4620      	mov	r0, r4
   80aaa:	f000 ff81 	bl	819b0 <UDD_FifoByteCount>
   80aae:	b178      	cbz	r0, 80ad0 <_Z9USBD_RecvmPvm+0x6c>
   80ab0:	f1b8 0f00 	cmp.w	r8, #0
   80ab4:	d009      	beq.n	80aca <_Z9USBD_RecvmPvm+0x66>
   80ab6:	2301      	movs	r3, #1
   80ab8:	603b      	str	r3, [r7, #0]
   80aba:	f3bf 8f5f 	dmb	sy
   80abe:	b662      	cpsie	i
   80ac0:	e003      	b.n	80aca <_Z9USBD_RecvmPvm+0x66>
   80ac2:	f04f 30ff 	mov.w	r0, #4294967295	; 0xffffffff
   80ac6:	e8bd 83f8 	ldmia.w	sp!, {r3, r4, r5, r6, r7, r8, r9, pc}
   80aca:	4628      	mov	r0, r5
   80acc:	e8bd 83f8 	ldmia.w	sp!, {r3, r4, r5, r6, r7, r8, r9, pc}
   80ad0:	4620      	mov	r0, r4
   80ad2:	f000 ff77 	bl	819c4 <UDD_ReleaseRX>
   80ad6:	e7eb      	b.n	80ab0 <_Z9USBD_RecvmPvm+0x4c>
   80ad8:	20070e40 	andcs	r0, r7, r0, asr #28
   80adc:	20070068 	andcs	r0, r7, r8, rrx

00080ae0 <_Z9USBD_Recvm>:
   80ae0:	b507      	push	{r0, r1, r2, lr}
   80ae2:	2201      	movs	r2, #1
   80ae4:	f10d 0107 	add.w	r1, sp, #7
   80ae8:	f000 000f 	and.w	r0, r0, #15
   80aec:	f7ff ffba 	bl	80a64 <_Z9USBD_RecvmPvm>
   80af0:	2801      	cmp	r0, #1
   80af2:	bf0c      	ite	eq
   80af4:	f89d 0007 	ldrbeq.w	r0, [sp, #7]
   80af8:	f04f 30ff 	movne.w	r0, #4294967295	; 0xffffffff
   80afc:	b003      	add	sp, #12
   80afe:	f85d fb04 	ldr.w	pc, [sp], #4
	...

00080b04 <_Z9USBD_SendmPKvm>:
   80b04:	4b11      	ldr	r3, [pc, #68]	; (80b4c <_Z9USBD_SendmPKvm+0x48>)
   80b06:	e92d 41f0 	stmdb	sp!, {r4, r5, r6, r7, r8, lr}
   80b0a:	681b      	ldr	r3, [r3, #0]
   80b0c:	4680      	mov	r8, r0
   80b0e:	460d      	mov	r5, r1
   80b10:	4617      	mov	r7, r2
   80b12:	b1b3      	cbz	r3, 80b42 <_Z9USBD_SendmPKvm+0x3e>
   80b14:	4614      	mov	r4, r2
   80b16:	b18c      	cbz	r4, 80b3c <_Z9USBD_SendmPKvm+0x38>
   80b18:	f1b8 0f00 	cmp.w	r8, #0
   80b1c:	bf14      	ite	ne
   80b1e:	f44f 7600 	movne.w	r6, #512	; 0x200
   80b22:	2640      	moveq	r6, #64	; 0x40
   80b24:	42a6      	cmp	r6, r4
   80b26:	bf28      	it	cs
   80b28:	4626      	movcs	r6, r4
   80b2a:	4629      	mov	r1, r5
   80b2c:	f008 000f 	and.w	r0, r8, #15
   80b30:	4632      	mov	r2, r6
   80b32:	1ba4      	subs	r4, r4, r6
   80b34:	f000 feae 	bl	81894 <UDD_Send>
   80b38:	4435      	add	r5, r6
   80b3a:	e7ec      	b.n	80b16 <_Z9USBD_SendmPKvm+0x12>
   80b3c:	4638      	mov	r0, r7
   80b3e:	e8bd 81f0 	ldmia.w	sp!, {r4, r5, r6, r7, r8, pc}
   80b42:	f04f 30ff 	mov.w	r0, #4294967295	; 0xffffffff
   80b46:	e8bd 81f0 	ldmia.w	sp!, {r4, r5, r6, r7, r8, pc}
   80b4a:	bf00      	nop
   80b4c:	20070e40 	andcs	r0, r7, r0, asr #28

00080b50 <_Z16USBD_SendControlhPKvm>:
   80b50:	e92d 41f0 	stmdb	sp!, {r4, r5, r6, r7, r8, lr}
   80b54:	4b0c      	ldr	r3, [pc, #48]	; (80b88 <_Z16USBD_SendControlhPKvm+0x38>)
   80b56:	4f0d      	ldr	r7, [pc, #52]	; (80b8c <_Z16USBD_SendControlhPKvm+0x3c>)
   80b58:	4615      	mov	r5, r2
   80b5a:	881b      	ldrh	r3, [r3, #0]
   80b5c:	883a      	ldrh	r2, [r7, #0]
   80b5e:	4688      	mov	r8, r1
   80b60:	429a      	cmp	r2, r3
   80b62:	d20b      	bcs.n	80b7c <_Z16USBD_SendControlhPKvm+0x2c>
   80b64:	462c      	mov	r4, r5
   80b66:	2600      	movs	r6, #0
   80b68:	b144      	cbz	r4, 80b7c <_Z16USBD_SendControlhPKvm+0x2c>
   80b6a:	eb08 0106 	add.w	r1, r8, r6
   80b6e:	4622      	mov	r2, r4
   80b70:	2000      	movs	r0, #0
   80b72:	f000 fe8f 	bl	81894 <UDD_Send>
   80b76:	4406      	add	r6, r0
   80b78:	1a24      	subs	r4, r4, r0
   80b7a:	e7f5      	b.n	80b68 <_Z16USBD_SendControlhPKvm+0x18>
   80b7c:	883b      	ldrh	r3, [r7, #0]
   80b7e:	4628      	mov	r0, r5
   80b80:	442b      	add	r3, r5
   80b82:	803b      	strh	r3, [r7, #0]
   80b84:	e8bd 81f0 	ldmia.w	sp!, {r4, r5, r6, r7, r8, pc}
   80b88:	20070e3c 	andcs	r0, r7, ip, lsr lr
   80b8c:	20070e24 	andcs	r0, r7, r4, lsr #28

00080b90 <_ZL24USB_SendStringDescriptorPKhi>:
   80b90:	b5f8      	push	{r3, r4, r5, r6, r7, lr}
   80b92:	2901      	cmp	r1, #1
   80b94:	af00      	add	r7, sp, #0
   80b96:	4606      	mov	r6, r0
   80b98:	460c      	mov	r4, r1
   80b9a:	dd28      	ble.n	80bee <_ZL24USB_SendStringDescriptorPKhi+0x5e>
   80b9c:	1dcb      	adds	r3, r1, #7
   80b9e:	f023 0307 	bic.w	r3, r3, #7
   80ba2:	ebad 0d03 	sub.w	sp, sp, r3
   80ba6:	f000 ffcb 	bl	81b40 <strlen>
   80baa:	3001      	adds	r0, #1
   80bac:	0040      	lsls	r0, r0, #1
   80bae:	2303      	movs	r3, #3
   80bb0:	f88d 0000 	strb.w	r0, [sp]
   80bb4:	466d      	mov	r5, sp
   80bb6:	f88d 3001 	strb.w	r3, [sp, #1]
   80bba:	1e70      	subs	r0, r6, #1
   80bbc:	2202      	movs	r2, #2
   80bbe:	42a2      	cmp	r2, r4
   80bc0:	da0d      	bge.n	80bde <_ZL24USB_SendStringDescriptorPKhi+0x4e>
   80bc2:	f810 3f01 	ldrb.w	r3, [r0, #1]!
   80bc6:	b153      	cbz	r3, 80bde <_ZL24USB_SendStringDescriptorPKhi+0x4e>
   80bc8:	1c51      	adds	r1, r2, #1
   80bca:	b2c9      	uxtb	r1, r1
   80bcc:	42a1      	cmp	r1, r4
   80bce:	54ab      	strb	r3, [r5, r2]
   80bd0:	d004      	beq.n	80bdc <_ZL24USB_SendStringDescriptorPKhi+0x4c>
   80bd2:	2300      	movs	r3, #0
   80bd4:	3202      	adds	r2, #2
   80bd6:	546b      	strb	r3, [r5, r1]
   80bd8:	b2d2      	uxtb	r2, r2
   80bda:	e7f0      	b.n	80bbe <_ZL24USB_SendStringDescriptorPKhi+0x2e>
   80bdc:	4622      	mov	r2, r4
   80bde:	2000      	movs	r0, #0
   80be0:	4629      	mov	r1, r5
   80be2:	f7ff ffb5 	bl	80b50 <_Z16USBD_SendControlhPKvm>
   80be6:	3000      	adds	r0, #0
   80be8:	bf18      	it	ne
   80bea:	2001      	movne	r0, #1
   80bec:	e000      	b.n	80bf0 <_ZL24USB_SendStringDescriptorPKhi+0x60>
   80bee:	2000      	movs	r0, #0
   80bf0:	46bd      	mov	sp, r7
   80bf2:	bdf8      	pop	{r3, r4, r5, r6, r7, pc}

00080bf4 <_Z16USBD_RecvControlPvm>:
   80bf4:	b538      	push	{r3, r4, r5, lr}
   80bf6:	460c      	mov	r4, r1
   80bf8:	4605      	mov	r5, r0
   80bfa:	f000 fe1b 	bl	81834 <UDD_WaitOUT>
   80bfe:	2000      	movs	r0, #0
   80c00:	4629      	mov	r1, r5
   80c02:	4622      	mov	r2, r4
   80c04:	f000 feb0 	bl	81968 <UDD_Recv>
   80c08:	f000 fe28 	bl	8185c <UDD_ClearOUT>
   80c0c:	4620      	mov	r0, r4
   80c0e:	bd38      	pop	{r3, r4, r5, pc}

00080c10 <_Z26USBD_ClassInterfaceRequestR8USBSetup>:
   80c10:	7903      	ldrb	r3, [r0, #4]
   80c12:	b510      	push	{r4, lr}
   80c14:	4604      	mov	r4, r0
   80c16:	b91b      	cbnz	r3, 80c20 <_Z26USBD_ClassInterfaceRequestR8USBSetup+0x10>
   80c18:	e8bd 4010 	ldmia.w	sp!, {r4, lr}
   80c1c:	f000 bb3a 	b.w	81294 <_Z9CDC_SetupR8USBSetup>
   80c20:	f000 fd10 	bl	81644 <_Z12PluggableUSBv>
   80c24:	4621      	mov	r1, r4
   80c26:	e8bd 4010 	ldmia.w	sp!, {r4, lr}
   80c2a:	f000 bcfa 	b.w	81622 <_ZN13PluggableUSB_5setupER8USBSetup>

00080c2e <_Z19USBD_SendInterfacesv>:
   80c2e:	b513      	push	{r0, r1, r4, lr}
   80c30:	2300      	movs	r3, #0
   80c32:	ac02      	add	r4, sp, #8
   80c34:	f804 3d01 	strb.w	r3, [r4, #-1]!
   80c38:	4620      	mov	r0, r4
   80c3a:	f000 fb17 	bl	8126c <_Z16CDC_GetInterfacePh>
   80c3e:	f000 fd01 	bl	81644 <_Z12PluggableUSBv>
   80c42:	4621      	mov	r1, r4
   80c44:	f000 fcbd 	bl	815c2 <_ZN13PluggableUSB_12getInterfaceEPh>
   80c48:	f89d 0007 	ldrb.w	r0, [sp, #7]
   80c4c:	b002      	add	sp, #8
   80c4e:	bd10      	pop	{r4, pc}

00080c50 <_Z24USBD_SendOtherInterfacesv>:
   80c50:	b513      	push	{r0, r1, r4, lr}
   80c52:	2300      	movs	r3, #0
   80c54:	ac02      	add	r4, sp, #8
   80c56:	f804 3d01 	strb.w	r3, [r4, #-1]!
   80c5a:	4620      	mov	r0, r4
   80c5c:	f000 fb10 	bl	81280 <_Z21CDC_GetOtherInterfacePh>
   80c60:	f000 fcf0 	bl	81644 <_Z12PluggableUSBv>
   80c64:	4621      	mov	r1, r4
   80c66:	f000 fcac 	bl	815c2 <_ZN13PluggableUSB_12getInterfaceEPh>
   80c6a:	f89d 0007 	ldrb.w	r0, [sp, #7]
   80c6e:	b002      	add	sp, #8
   80c70:	bd10      	pop	{r4, pc}

00080c72 <_Z10USBD_Flushm>:
   80c72:	b510      	push	{r4, lr}
   80c74:	4604      	mov	r4, r0
   80c76:	f000 fe9b 	bl	819b0 <UDD_FifoByteCount>
   80c7a:	b120      	cbz	r0, 80c86 <_Z10USBD_Flushm+0x14>
   80c7c:	4620      	mov	r0, r4
   80c7e:	e8bd 4010 	ldmia.w	sp!, {r4, lr}
   80c82:	f000 beb3 	b.w	819ec <UDD_ReleaseTX>
   80c86:	bd10      	pop	{r4, pc}

00080c88 <_ZN10USBDevice_C1Ev>:
   80c88:	b510      	push	{r4, lr}
   80c8a:	4604      	mov	r4, r0
   80c8c:	4805      	ldr	r0, [pc, #20]	; (80ca4 <_ZN10USBDevice_C1Ev+0x1c>)
   80c8e:	f000 fcff 	bl	81690 <UDD_SetStack>
   80c92:	f000 fd03 	bl	8169c <UDD_Init>
   80c96:	b910      	cbnz	r0, 80c9e <_ZN10USBDevice_C1Ev+0x16>
   80c98:	4b03      	ldr	r3, [pc, #12]	; (80ca8 <_ZN10USBDevice_C1Ev+0x20>)
   80c9a:	2201      	movs	r2, #1
   80c9c:	601a      	str	r2, [r3, #0]
   80c9e:	4620      	mov	r0, r4
   80ca0:	bd10      	pop	{r4, pc}
   80ca2:	bf00      	nop
   80ca4:	00080cd9 	ldrdeq	r0, [r8], -r9
   80ca8:	20070e30 	andcs	r0, r7, r0, lsr lr

00080cac <_ZN10USBDevice_6attachEv>:
   80cac:	b508      	push	{r3, lr}
   80cae:	4b05      	ldr	r3, [pc, #20]	; (80cc4 <_ZN10USBDevice_6attachEv+0x18>)
   80cb0:	6818      	ldr	r0, [r3, #0]
   80cb2:	b128      	cbz	r0, 80cc0 <_ZN10USBDevice_6attachEv+0x14>
   80cb4:	f000 fd5a 	bl	8176c <UDD_Attach>
   80cb8:	4b03      	ldr	r3, [pc, #12]	; (80cc8 <_ZN10USBDevice_6attachEv+0x1c>)
   80cba:	2200      	movs	r2, #0
   80cbc:	601a      	str	r2, [r3, #0]
   80cbe:	2001      	movs	r0, #1
   80cc0:	bd08      	pop	{r3, pc}
   80cc2:	bf00      	nop
   80cc4:	20070e30 	andcs	r0, r7, r0, lsr lr
   80cc8:	20070e40 	andcs	r0, r7, r0, asr #28

00080ccc <_GLOBAL__sub_I_EndPoints>:
   80ccc:	4801      	ldr	r0, [pc, #4]	; (80cd4 <_GLOBAL__sub_I_EndPoints+0x8>)
   80cce:	f7ff bfdb 	b.w	80c88 <_ZN10USBDevice_C1Ev>
   80cd2:	bf00      	nop
   80cd4:	20070e34 	andcs	r0, r7, r4, lsr lr

00080cd8 <_ZL7USB_ISRv>:
   80cd8:	e92d 47f0 	stmdb	sp!, {r4, r5, r6, r7, r8, r9, sl, lr}
   80cdc:	4cac      	ldr	r4, [pc, #688]	; (80f90 <_ZL7USB_ISRv+0x2b8>)
   80cde:	b088      	sub	sp, #32
   80ce0:	6863      	ldr	r3, [r4, #4]
   80ce2:	071f      	lsls	r7, r3, #28
   80ce4:	d517      	bpl.n	80d16 <_ZL7USB_ISRv+0x3e>
   80ce6:	6823      	ldr	r3, [r4, #0]
   80ce8:	2000      	movs	r0, #0
   80cea:	f023 037f 	bic.w	r3, r3, #127	; 0x7f
   80cee:	6023      	str	r3, [r4, #0]
   80cf0:	6823      	ldr	r3, [r4, #0]
   80cf2:	f242 0132 	movw	r1, #8242	; 0x2032
   80cf6:	f043 0380 	orr.w	r3, r3, #128	; 0x80
   80cfa:	6023      	str	r3, [r4, #0]
   80cfc:	f000 fd5e 	bl	817bc <UDD_InitEP>
   80d00:	4ba4      	ldr	r3, [pc, #656]	; (80f94 <_ZL7USB_ISRv+0x2bc>)
   80d02:	2204      	movs	r2, #4
   80d04:	601a      	str	r2, [r3, #0]
   80d06:	f44f 5380 	mov.w	r3, #4096	; 0x1000
   80d0a:	61a3      	str	r3, [r4, #24]
   80d0c:	4ba2      	ldr	r3, [pc, #648]	; (80f98 <_ZL7USB_ISRv+0x2c0>)
   80d0e:	2200      	movs	r2, #0
   80d10:	601a      	str	r2, [r3, #0]
   80d12:	2308      	movs	r3, #8
   80d14:	60a3      	str	r3, [r4, #8]
   80d16:	4b9e      	ldr	r3, [pc, #632]	; (80f90 <_ZL7USB_ISRv+0x2b8>)
   80d18:	685b      	ldr	r3, [r3, #4]
   80d1a:	045e      	lsls	r6, r3, #17
   80d1c:	d508      	bpl.n	80d30 <_ZL7USB_ISRv+0x58>
   80d1e:	4b9f      	ldr	r3, [pc, #636]	; (80f9c <_ZL7USB_ISRv+0x2c4>)
   80d20:	2002      	movs	r0, #2
   80d22:	6018      	str	r0, [r3, #0]
   80d24:	f7ff fe88 	bl	80a38 <_Z14USBD_Availablem>
   80d28:	b110      	cbz	r0, 80d30 <_ZL7USB_ISRv+0x58>
   80d2a:	489d      	ldr	r0, [pc, #628]	; (80fa0 <_ZL7USB_ISRv+0x2c8>)
   80d2c:	f000 fa50 	bl	811d0 <_ZN7Serial_6acceptEv>
   80d30:	4b97      	ldr	r3, [pc, #604]	; (80f90 <_ZL7USB_ISRv+0x2b8>)
   80d32:	685a      	ldr	r2, [r3, #4]
   80d34:	0755      	lsls	r5, r2, #29
   80d36:	bf44      	itt	mi
   80d38:	2204      	movmi	r2, #4
   80d3a:	609a      	strmi	r2, [r3, #8]
   80d3c:	685b      	ldr	r3, [r3, #4]
   80d3e:	04dc      	lsls	r4, r3, #19
   80d40:	f140 81e2 	bpl.w	81108 <_ZL7USB_ISRv+0x430>
   80d44:	f000 fd96 	bl	81874 <UDD_ReceivedSetupInt>
   80d48:	2800      	cmp	r0, #0
   80d4a:	f000 81dd 	beq.w	81108 <_ZL7USB_ISRv+0x430>
   80d4e:	2000      	movs	r0, #0
   80d50:	a901      	add	r1, sp, #4
   80d52:	2208      	movs	r2, #8
   80d54:	f000 fe08 	bl	81968 <UDD_Recv>
   80d58:	f000 fd94 	bl	81884 <UDD_ClearSetupInt>
   80d5c:	f89d 5004 	ldrb.w	r5, [sp, #4]
   80d60:	0628      	lsls	r0, r5, #24
   80d62:	d502      	bpl.n	80d6a <_ZL7USB_ISRv+0x92>
   80d64:	f000 fd5e 	bl	81824 <UDD_WaitIN>
   80d68:	e001      	b.n	80d6e <_ZL7USB_ISRv+0x96>
   80d6a:	f000 fd6b 	bl	81844 <UDD_ClearIN>
   80d6e:	f015 0460 	ands.w	r4, r5, #96	; 0x60
   80d72:	f040 81b4 	bne.w	810de <_ZL7USB_ISRv+0x406>
   80d76:	f89d 3005 	ldrb.w	r3, [sp, #5]
   80d7a:	b973      	cbnz	r3, 80d9a <_ZL7USB_ISRv+0xc2>
   80d7c:	f89d 4004 	ldrb.w	r4, [sp, #4]
   80d80:	b1ac      	cbz	r4, 80dae <_ZL7USB_ISRv+0xd6>
   80d82:	4b88      	ldr	r3, [pc, #544]	; (80fa4 <_ZL7USB_ISRv+0x2cc>)
   80d84:	781b      	ldrb	r3, [r3, #0]
   80d86:	2000      	movs	r0, #0
   80d88:	2b01      	cmp	r3, #1
   80d8a:	bf14      	ite	ne
   80d8c:	4601      	movne	r1, r0
   80d8e:	2101      	moveq	r1, #1
   80d90:	f000 fdc4 	bl	8191c <UDD_Send8>
   80d94:	2000      	movs	r0, #0
   80d96:	4601      	mov	r1, r0
   80d98:	e197      	b.n	810ca <_ZL7USB_ISRv+0x3f2>
   80d9a:	2b01      	cmp	r3, #1
   80d9c:	d10d      	bne.n	80dba <_ZL7USB_ISRv+0xe2>
   80d9e:	f89d 3006 	ldrb.w	r3, [sp, #6]
   80da2:	2b01      	cmp	r3, #1
   80da4:	d101      	bne.n	80daa <_ZL7USB_ISRv+0xd2>
   80da6:	4b80      	ldr	r3, [pc, #512]	; (80fa8 <_ZL7USB_ISRv+0x2d0>)
   80da8:	e7ec      	b.n	80d84 <_ZL7USB_ISRv+0xac>
   80daa:	4b7e      	ldr	r3, [pc, #504]	; (80fa4 <_ZL7USB_ISRv+0x2cc>)
   80dac:	701c      	strb	r4, [r3, #0]
   80dae:	4620      	mov	r0, r4
   80db0:	4621      	mov	r1, r4
   80db2:	f000 fdb3 	bl	8191c <UDD_Send8>
   80db6:	4620      	mov	r0, r4
   80db8:	e7ed      	b.n	80d96 <_ZL7USB_ISRv+0xbe>
   80dba:	2b03      	cmp	r3, #3
   80dbc:	d175      	bne.n	80eaa <_ZL7USB_ISRv+0x1d2>
   80dbe:	f89d 3006 	ldrb.w	r3, [sp, #6]
   80dc2:	2b01      	cmp	r3, #1
   80dc4:	d105      	bne.n	80dd2 <_ZL7USB_ISRv+0xfa>
   80dc6:	4a78      	ldr	r2, [pc, #480]	; (80fa8 <_ZL7USB_ISRv+0x2d0>)
   80dc8:	4620      	mov	r0, r4
   80dca:	4621      	mov	r1, r4
   80dcc:	7013      	strb	r3, [r2, #0]
   80dce:	f000 fda5 	bl	8191c <UDD_Send8>
   80dd2:	f89d 0006 	ldrb.w	r0, [sp, #6]
   80dd6:	b928      	cbnz	r0, 80de4 <_ZL7USB_ISRv+0x10c>
   80dd8:	4b72      	ldr	r3, [pc, #456]	; (80fa4 <_ZL7USB_ISRv+0x2cc>)
   80dda:	2201      	movs	r2, #1
   80ddc:	4601      	mov	r1, r0
   80dde:	701a      	strb	r2, [r3, #0]
   80de0:	f000 fd9c 	bl	8191c <UDD_Send8>
   80de4:	f89d 3006 	ldrb.w	r3, [sp, #6]
   80de8:	2b02      	cmp	r3, #2
   80dea:	f040 8185 	bne.w	810f8 <_ZL7USB_ISRv+0x420>
   80dee:	f89d 3004 	ldrb.w	r3, [sp, #4]
   80df2:	2b00      	cmp	r3, #0
   80df4:	f040 8180 	bne.w	810f8 <_ZL7USB_ISRv+0x420>
   80df8:	f8bd 3008 	ldrh.w	r3, [sp, #8]
   80dfc:	0719      	lsls	r1, r3, #28
   80dfe:	f040 817b 	bne.w	810f8 <_ZL7USB_ISRv+0x420>
   80e02:	4c63      	ldr	r4, [pc, #396]	; (80f90 <_ZL7USB_ISRv+0x2b8>)
   80e04:	0a1b      	lsrs	r3, r3, #8
   80e06:	6962      	ldr	r2, [r4, #20]
   80e08:	3b01      	subs	r3, #1
   80e0a:	f022 0201 	bic.w	r2, r2, #1
   80e0e:	6162      	str	r2, [r4, #20]
   80e10:	6822      	ldr	r2, [r4, #0]
   80e12:	f442 6200 	orr.w	r2, r2, #2048	; 0x800
   80e16:	6022      	str	r2, [r4, #0]
   80e18:	2b03      	cmp	r3, #3
   80e1a:	f200 816d 	bhi.w	810f8 <_ZL7USB_ISRv+0x420>
   80e1e:	e8df f003 	tbb	[pc, r3]
   80e22:	023f3831 	eorseq	r3, pc, #3211264	; 0x310000
   80e26:	f7ff fdf7 	bl	80a18 <_ZL11USB_SendZlpv>
   80e2a:	2300      	movs	r3, #0
   80e2c:	f8c4 3318 	str.w	r3, [r4, #792]	; 0x318
   80e30:	f8c4 3328 	str.w	r3, [r4, #808]	; 0x328
   80e34:	f241 1330 	movw	r3, #4400	; 0x1130
   80e38:	f8c4 3108 	str.w	r3, [r4, #264]	; 0x108
   80e3c:	f8d4 3108 	ldr.w	r3, [r4, #264]	; 0x108
   80e40:	f043 0302 	orr.w	r3, r3, #2
   80e44:	f8c4 3108 	str.w	r3, [r4, #264]	; 0x108
   80e48:	4b51      	ldr	r3, [pc, #324]	; (80f90 <_ZL7USB_ISRv+0x2b8>)
   80e4a:	f8d3 2138 	ldr.w	r2, [r3, #312]	; 0x138
   80e4e:	0352      	lsls	r2, r2, #13
   80e50:	d5fa      	bpl.n	80e48 <_ZL7USB_ISRv+0x170>
   80e52:	69da      	ldr	r2, [r3, #28]
   80e54:	f042 0204 	orr.w	r2, r2, #4
   80e58:	61da      	str	r2, [r3, #28]
   80e5a:	4b54      	ldr	r3, [pc, #336]	; (80fac <_ZL7USB_ISRv+0x2d4>)
   80e5c:	4a54      	ldr	r2, [pc, #336]	; (80fb0 <_ZL7USB_ISRv+0x2d8>)
   80e5e:	5c9a      	ldrb	r2, [r3, r2]
   80e60:	f803 2f01 	strb.w	r2, [r3, #1]!
   80e64:	4a53      	ldr	r2, [pc, #332]	; (80fb4 <_ZL7USB_ISRv+0x2dc>)
   80e66:	4293      	cmp	r3, r2
   80e68:	d1f8      	bne.n	80e5c <_ZL7USB_ISRv+0x184>
   80e6a:	4b49      	ldr	r3, [pc, #292]	; (80f90 <_ZL7USB_ISRv+0x2b8>)
   80e6c:	681a      	ldr	r2, [r3, #0]
   80e6e:	f442 4200 	orr.w	r2, r2, #32768	; 0x8000
   80e72:	601a      	str	r2, [r3, #0]
   80e74:	2201      	movs	r2, #1
   80e76:	f8c3 2168 	str.w	r2, [r3, #360]	; 0x168
   80e7a:	f44f 4280 	mov.w	r2, #16384	; 0x4000
   80e7e:	f8c3 2228 	str.w	r2, [r3, #552]	; 0x228
   80e82:	e7fe      	b.n	80e82 <_ZL7USB_ISRv+0x1aa>
   80e84:	f7ff fdc8 	bl	80a18 <_ZL11USB_SendZlpv>
   80e88:	6823      	ldr	r3, [r4, #0]
   80e8a:	f443 5300 	orr.w	r3, r3, #8192	; 0x2000
   80e8e:	6023      	str	r3, [r4, #0]
   80e90:	e7fe      	b.n	80e90 <_ZL7USB_ISRv+0x1b8>
   80e92:	f7ff fdc1 	bl	80a18 <_ZL11USB_SendZlpv>
   80e96:	6823      	ldr	r3, [r4, #0]
   80e98:	f443 4380 	orr.w	r3, r3, #16384	; 0x4000
   80e9c:	6023      	str	r3, [r4, #0]
   80e9e:	e7fe      	b.n	80e9e <_ZL7USB_ISRv+0x1c6>
   80ea0:	f7ff fdba 	bl	80a18 <_ZL11USB_SendZlpv>
   80ea4:	4b44      	ldr	r3, [pc, #272]	; (80fb8 <_ZL7USB_ISRv+0x2e0>)
   80ea6:	6163      	str	r3, [r4, #20]
   80ea8:	e7fe      	b.n	80ea8 <_ZL7USB_ISRv+0x1d0>
   80eaa:	2b05      	cmp	r3, #5
   80eac:	d106      	bne.n	80ebc <_ZL7USB_ISRv+0x1e4>
   80eae:	f000 fcb9 	bl	81824 <UDD_WaitIN>
   80eb2:	f89d 0006 	ldrb.w	r0, [sp, #6]
   80eb6:	f000 fdad 	bl	81a14 <UDD_SetAddress>
   80eba:	e11d      	b.n	810f8 <_ZL7USB_ISRv+0x420>
   80ebc:	2b06      	cmp	r3, #6
   80ebe:	f040 80dc 	bne.w	8107a <_ZL7USB_ISRv+0x3a2>
   80ec2:	f89d 6007 	ldrb.w	r6, [sp, #7]
   80ec6:	4d3d      	ldr	r5, [pc, #244]	; (80fbc <_ZL7USB_ISRv+0x2e4>)
   80ec8:	2e02      	cmp	r6, #2
   80eca:	f8bd 900a 	ldrh.w	r9, [sp, #10]
   80ece:	4f3c      	ldr	r7, [pc, #240]	; (80fc0 <_ZL7USB_ISRv+0x2e8>)
   80ed0:	802c      	strh	r4, [r5, #0]
   80ed2:	d128      	bne.n	80f26 <_ZL7USB_ISRv+0x24e>
   80ed4:	803c      	strh	r4, [r7, #0]
   80ed6:	f7ff feaa 	bl	80c2e <_Z19USBD_SendInterfacesv>
   80eda:	f04f 0809 	mov.w	r8, #9
   80ede:	4682      	mov	sl, r0
   80ee0:	4621      	mov	r1, r4
   80ee2:	4642      	mov	r2, r8
   80ee4:	a803      	add	r0, sp, #12
   80ee6:	f000 fde1 	bl	81aac <memset>
   80eea:	2301      	movs	r3, #1
   80eec:	f88d 3011 	strb.w	r3, [sp, #17]
   80ef0:	23c0      	movs	r3, #192	; 0xc0
   80ef2:	f88d 3013 	strb.w	r3, [sp, #19]
   80ef6:	23fa      	movs	r3, #250	; 0xfa
   80ef8:	f88d 3014 	strb.w	r3, [sp, #20]
   80efc:	882b      	ldrh	r3, [r5, #0]
   80efe:	a903      	add	r1, sp, #12
   80f00:	4443      	add	r3, r8
   80f02:	4642      	mov	r2, r8
   80f04:	4620      	mov	r0, r4
   80f06:	f8ad 300e 	strh.w	r3, [sp, #14]
   80f0a:	f88d 800c 	strb.w	r8, [sp, #12]
   80f0e:	f88d 600d 	strb.w	r6, [sp, #13]
   80f12:	f88d a010 	strb.w	sl, [sp, #16]
   80f16:	802c      	strh	r4, [r5, #0]
   80f18:	f8a7 9000 	strh.w	r9, [r7]
   80f1c:	f7ff fe18 	bl	80b50 <_Z16USBD_SendControlhPKvm>
   80f20:	f7ff fe85 	bl	80c2e <_Z19USBD_SendInterfacesv>
   80f24:	e0e8      	b.n	810f8 <_ZL7USB_ISRv+0x420>
   80f26:	f8a7 9000 	strh.w	r9, [r7]
   80f2a:	f000 fb8b 	bl	81644 <_Z12PluggableUSBv>
   80f2e:	a901      	add	r1, sp, #4
   80f30:	f000 fb5b 	bl	815ea <_ZN13PluggableUSB_13getDescriptorER8USBSetup>
   80f34:	2800      	cmp	r0, #0
   80f36:	d003      	beq.n	80f40 <_ZL7USB_ISRv+0x268>
   80f38:	bfd4      	ite	le
   80f3a:	2000      	movle	r0, #0
   80f3c:	2001      	movgt	r0, #1
   80f3e:	e0da      	b.n	810f6 <_ZL7USB_ISRv+0x41e>
   80f40:	2e01      	cmp	r6, #1
   80f42:	d110      	bne.n	80f66 <_ZL7USB_ISRv+0x28e>
   80f44:	f8bd 200a 	ldrh.w	r2, [sp, #10]
   80f48:	4b1e      	ldr	r3, [pc, #120]	; (80fc4 <_ZL7USB_ISRv+0x2ec>)
   80f4a:	2a08      	cmp	r2, #8
   80f4c:	bf04      	itt	eq
   80f4e:	2101      	moveq	r1, #1
   80f50:	6019      	streq	r1, [r3, #0]
   80f52:	6818      	ldr	r0, [r3, #0]
   80f54:	491c      	ldr	r1, [pc, #112]	; (80fc8 <_ZL7USB_ISRv+0x2f0>)
   80f56:	4b1d      	ldr	r3, [pc, #116]	; (80fcc <_ZL7USB_ISRv+0x2f4>)
   80f58:	2800      	cmp	r0, #0
   80f5a:	bf08      	it	eq
   80f5c:	4619      	moveq	r1, r3
   80f5e:	2a11      	cmp	r2, #17
   80f60:	f200 8086 	bhi.w	81070 <_ZL7USB_ISRv+0x398>
   80f64:	e048      	b.n	80ff8 <_ZL7USB_ISRv+0x320>
   80f66:	2e03      	cmp	r6, #3
   80f68:	d148      	bne.n	80ffc <_ZL7USB_ISRv+0x324>
   80f6a:	f89d 3006 	ldrb.w	r3, [sp, #6]
   80f6e:	b933      	cbnz	r3, 80f7e <_ZL7USB_ISRv+0x2a6>
   80f70:	4917      	ldr	r1, [pc, #92]	; (80fd0 <_ZL7USB_ISRv+0x2f8>)
   80f72:	f8bd 200a 	ldrh.w	r2, [sp, #10]
   80f76:	780b      	ldrb	r3, [r1, #0]
   80f78:	4293      	cmp	r3, r2
   80f7a:	d83d      	bhi.n	80ff8 <_ZL7USB_ISRv+0x320>
   80f7c:	e078      	b.n	81070 <_ZL7USB_ISRv+0x398>
   80f7e:	2b02      	cmp	r3, #2
   80f80:	d101      	bne.n	80f86 <_ZL7USB_ISRv+0x2ae>
   80f82:	4814      	ldr	r0, [pc, #80]	; (80fd4 <_ZL7USB_ISRv+0x2fc>)
   80f84:	e033      	b.n	80fee <_ZL7USB_ISRv+0x316>
   80f86:	2b01      	cmp	r3, #1
   80f88:	d128      	bne.n	80fdc <_ZL7USB_ISRv+0x304>
   80f8a:	4813      	ldr	r0, [pc, #76]	; (80fd8 <_ZL7USB_ISRv+0x300>)
   80f8c:	e02f      	b.n	80fee <_ZL7USB_ISRv+0x316>
   80f8e:	bf00      	nop
   80f90:	400ac000 	andmi	ip, sl, r0
   80f94:	400ac1f0 	strdmi	ip, [sl], -r0
   80f98:	20070e40 	andcs	r0, r7, r0, asr #28
   80f9c:	400ac168 	andmi	ip, sl, r8, ror #2
   80fa0:	20071050 	andcs	r1, r7, r0, asr r0
   80fa4:	20070e26 	andcs	r0, r7, r6, lsr #28
   80fa8:	20070e2c 	andcs	r0, r7, ip, lsr #28
   80fac:	2018ffff 			; <UNDEFINED> instruction: 0x2018ffff
   80fb0:	dfef53bb 	svcle	0x00ef53bb
   80fb4:	20190034 	andscs	r0, r9, r4, lsr r0
   80fb8:	7e07f07f 	mcrvc	0, 0, pc, cr7, cr15, {3}	; <UNPREDICTABLE>
   80fbc:	20070e24 	andcs	r0, r7, r4, lsr #28
   80fc0:	20070e3c 	andcs	r0, r7, ip, lsr lr
   80fc4:	20070e28 	andcs	r0, r7, r8, lsr #28
   80fc8:	000853fb 	strdeq	r5, [r8], -fp
   80fcc:	000853a4 	andeq	r5, r8, r4, lsr #7
   80fd0:	000853b6 			; <UNDEFINED> instruction: 0x000853b6
   80fd4:	00085398 	muleq	r8, r8, r3
   80fd8:	000853ef 	andeq	r5, r8, pc, ror #7
   80fdc:	2b03      	cmp	r3, #3
   80fde:	f040 808e 	bne.w	810fe <_ZL7USB_ISRv+0x426>
   80fe2:	f000 fb2f 	bl	81644 <_Z12PluggableUSBv>
   80fe6:	a903      	add	r1, sp, #12
   80fe8:	f000 fb0d 	bl	81606 <_ZN13PluggableUSB_12getShortNameEPc>
   80fec:	a803      	add	r0, sp, #12
   80fee:	f8bd 100a 	ldrh.w	r1, [sp, #10]
   80ff2:	f7ff fdcd 	bl	80b90 <_ZL24USB_SendStringDescriptorPKhi>
   80ff6:	e07e      	b.n	810f6 <_ZL7USB_ISRv+0x41e>
   80ff8:	b2d2      	uxtb	r2, r2
   80ffa:	e038      	b.n	8106e <_ZL7USB_ISRv+0x396>
   80ffc:	2e06      	cmp	r6, #6
   80ffe:	d106      	bne.n	8100e <_ZL7USB_ISRv+0x336>
   81000:	f8bd 200a 	ldrh.w	r2, [sp, #10]
   81004:	2a09      	cmp	r2, #9
   81006:	d87d      	bhi.n	81104 <_ZL7USB_ISRv+0x42c>
   81008:	b2d2      	uxtb	r2, r2
   8100a:	4941      	ldr	r1, [pc, #260]	; (81110 <_ZL7USB_ISRv+0x438>)
   8100c:	e02f      	b.n	8106e <_ZL7USB_ISRv+0x396>
   8100e:	2e07      	cmp	r6, #7
   81010:	f04f 0400 	mov.w	r4, #0
   81014:	d173      	bne.n	810fe <_ZL7USB_ISRv+0x426>
   81016:	f8bd 900a 	ldrh.w	r9, [sp, #10]
   8101a:	802c      	strh	r4, [r5, #0]
   8101c:	803c      	strh	r4, [r7, #0]
   8101e:	f7ff fe17 	bl	80c50 <_Z24USBD_SendOtherInterfacesv>
   81022:	f04f 0809 	mov.w	r8, #9
   81026:	4682      	mov	sl, r0
   81028:	4621      	mov	r1, r4
   8102a:	4642      	mov	r2, r8
   8102c:	a803      	add	r0, sp, #12
   8102e:	f000 fd3d 	bl	81aac <memset>
   81032:	2301      	movs	r3, #1
   81034:	f88d 3011 	strb.w	r3, [sp, #17]
   81038:	23c0      	movs	r3, #192	; 0xc0
   8103a:	f88d 3013 	strb.w	r3, [sp, #19]
   8103e:	23fa      	movs	r3, #250	; 0xfa
   81040:	f88d 3014 	strb.w	r3, [sp, #20]
   81044:	882b      	ldrh	r3, [r5, #0]
   81046:	a903      	add	r1, sp, #12
   81048:	4443      	add	r3, r8
   8104a:	4642      	mov	r2, r8
   8104c:	4620      	mov	r0, r4
   8104e:	f8ad 300e 	strh.w	r3, [sp, #14]
   81052:	f88d 800c 	strb.w	r8, [sp, #12]
   81056:	f88d 600d 	strb.w	r6, [sp, #13]
   8105a:	f88d a010 	strb.w	sl, [sp, #16]
   8105e:	802c      	strh	r4, [r5, #0]
   81060:	f8a7 9000 	strh.w	r9, [r7]
   81064:	f7ff fd74 	bl	80b50 <_Z16USBD_SendControlhPKvm>
   81068:	f7ff fdf2 	bl	80c50 <_Z24USBD_SendOtherInterfacesv>
   8106c:	e044      	b.n	810f8 <_ZL7USB_ISRv+0x420>
   8106e:	b902      	cbnz	r2, 81072 <_ZL7USB_ISRv+0x39a>
   81070:	780a      	ldrb	r2, [r1, #0]
   81072:	2000      	movs	r0, #0
   81074:	f7ff fd6c 	bl	80b50 <_Z16USBD_SendControlhPKvm>
   81078:	e03e      	b.n	810f8 <_ZL7USB_ISRv+0x420>
   8107a:	2b07      	cmp	r3, #7
   8107c:	d03f      	beq.n	810fe <_ZL7USB_ISRv+0x426>
   8107e:	2b08      	cmp	r3, #8
   81080:	d104      	bne.n	8108c <_ZL7USB_ISRv+0x3b4>
   81082:	4b24      	ldr	r3, [pc, #144]	; (81114 <_ZL7USB_ISRv+0x43c>)
   81084:	4620      	mov	r0, r4
   81086:	6819      	ldr	r1, [r3, #0]
   81088:	b2c9      	uxtb	r1, r1
   8108a:	e01e      	b.n	810ca <_ZL7USB_ISRv+0x3f2>
   8108c:	2b09      	cmp	r3, #9
   8108e:	d117      	bne.n	810c0 <_ZL7USB_ISRv+0x3e8>
   81090:	06eb      	lsls	r3, r5, #27
   81092:	d134      	bne.n	810fe <_ZL7USB_ISRv+0x426>
   81094:	2100      	movs	r1, #0
   81096:	4820      	ldr	r0, [pc, #128]	; (81118 <_ZL7USB_ISRv+0x440>)
   81098:	f850 3021 	ldr.w	r3, [r0, r1, lsl #2]
   8109c:	b10b      	cbz	r3, 810a2 <_ZL7USB_ISRv+0x3ca>
   8109e:	3101      	adds	r1, #1
   810a0:	e7f9      	b.n	81096 <_ZL7USB_ISRv+0x3be>
   810a2:	f000 fba1 	bl	817e8 <UDD_InitEndpoints>
   810a6:	f89d 2006 	ldrb.w	r2, [sp, #6]
   810aa:	4b1a      	ldr	r3, [pc, #104]	; (81114 <_ZL7USB_ISRv+0x43c>)
   810ac:	601a      	str	r2, [r3, #0]
   810ae:	4b1b      	ldr	r3, [pc, #108]	; (8111c <_ZL7USB_ISRv+0x444>)
   810b0:	2202      	movs	r2, #2
   810b2:	601a      	str	r2, [r3, #0]
   810b4:	f44f 4280 	mov.w	r2, #16384	; 0x4000
   810b8:	f5a3 73fc 	sub.w	r3, r3, #504	; 0x1f8
   810bc:	619a      	str	r2, [r3, #24]
   810be:	e01b      	b.n	810f8 <_ZL7USB_ISRv+0x420>
   810c0:	2b0a      	cmp	r3, #10
   810c2:	d105      	bne.n	810d0 <_ZL7USB_ISRv+0x3f8>
   810c4:	4b16      	ldr	r3, [pc, #88]	; (81120 <_ZL7USB_ISRv+0x448>)
   810c6:	2000      	movs	r0, #0
   810c8:	7819      	ldrb	r1, [r3, #0]
   810ca:	f000 fc27 	bl	8191c <UDD_Send8>
   810ce:	e013      	b.n	810f8 <_ZL7USB_ISRv+0x420>
   810d0:	2b0b      	cmp	r3, #11
   810d2:	d111      	bne.n	810f8 <_ZL7USB_ISRv+0x420>
   810d4:	f89d 2006 	ldrb.w	r2, [sp, #6]
   810d8:	4b11      	ldr	r3, [pc, #68]	; (81120 <_ZL7USB_ISRv+0x448>)
   810da:	601a      	str	r2, [r3, #0]
   810dc:	e00c      	b.n	810f8 <_ZL7USB_ISRv+0x420>
   810de:	f000 fba1 	bl	81824 <UDD_WaitIN>
   810e2:	4b10      	ldr	r3, [pc, #64]	; (81124 <_ZL7USB_ISRv+0x44c>)
   810e4:	2100      	movs	r1, #0
   810e6:	8019      	strh	r1, [r3, #0]
   810e8:	f8bd 200a 	ldrh.w	r2, [sp, #10]
   810ec:	4b0e      	ldr	r3, [pc, #56]	; (81128 <_ZL7USB_ISRv+0x450>)
   810ee:	a801      	add	r0, sp, #4
   810f0:	801a      	strh	r2, [r3, #0]
   810f2:	f7ff fd8d 	bl	80c10 <_Z26USBD_ClassInterfaceRequestR8USBSetup>
   810f6:	b110      	cbz	r0, 810fe <_ZL7USB_ISRv+0x426>
   810f8:	f000 fba4 	bl	81844 <UDD_ClearIN>
   810fc:	e004      	b.n	81108 <_ZL7USB_ISRv+0x430>
   810fe:	f000 fc4d 	bl	8199c <UDD_Stall>
   81102:	e001      	b.n	81108 <_ZL7USB_ISRv+0x430>
   81104:	4902      	ldr	r1, [pc, #8]	; (81110 <_ZL7USB_ISRv+0x438>)
   81106:	e7b3      	b.n	81070 <_ZL7USB_ISRv+0x398>
   81108:	b008      	add	sp, #32
   8110a:	e8bd 87f0 	ldmia.w	sp!, {r4, r5, r6, r7, r8, r9, sl, pc}
   8110e:	bf00      	nop
   81110:	0008540d 	andeq	r5, r8, sp, lsl #8
   81114:	20070e40 	andcs	r0, r7, r0, asr #28
   81118:	20070030 	andcs	r0, r7, r0, lsr r0
   8111c:	400ac1f8 	strdmi	ip, [sl], -r8
   81120:	20070e38 	andcs	r0, r7, r8, lsr lr
   81124:	20070e24 	andcs	r0, r7, r4, lsr #28
   81128:	20070e3c 	andcs	r0, r7, ip, lsr lr

0008112c <_ZN7Serial_9availableEv>:
   8112c:	4b04      	ldr	r3, [pc, #16]	; (81140 <_ZN7Serial_9availableEv+0x14>)
   8112e:	f8d3 0200 	ldr.w	r0, [r3, #512]	; 0x200
   81132:	f8d3 3204 	ldr.w	r3, [r3, #516]	; 0x204
   81136:	1ac0      	subs	r0, r0, r3
   81138:	f3c0 0008 	ubfx	r0, r0, #0, #9
   8113c:	4770      	bx	lr
   8113e:	bf00      	nop
   81140:	20070e44 	andcs	r0, r7, r4, asr #28

00081144 <_ZN7Serial_17availableForWriteEv>:
   81144:	f240 10ff 	movw	r0, #511	; 0x1ff
   81148:	4770      	bx	lr
	...

0008114c <_ZN7Serial_4peekEv>:
   8114c:	4b06      	ldr	r3, [pc, #24]	; (81168 <_ZN7Serial_4peekEv+0x1c>)
   8114e:	f8d3 1200 	ldr.w	r1, [r3, #512]	; 0x200
   81152:	f8d3 2204 	ldr.w	r2, [r3, #516]	; 0x204
   81156:	4291      	cmp	r1, r2
   81158:	bf1a      	itte	ne
   8115a:	f8d3 2204 	ldrne.w	r2, [r3, #516]	; 0x204
   8115e:	5c98      	ldrbne	r0, [r3, r2]
   81160:	f04f 30ff 	moveq.w	r0, #4294967295	; 0xffffffff
   81164:	4770      	bx	lr
   81166:	bf00      	nop
   81168:	20070e44 	andcs	r0, r7, r4, asr #28

0008116c <_ZN7Serial_5writeEh>:
   8116c:	b513      	push	{r0, r1, r4, lr}
   8116e:	6802      	ldr	r2, [r0, #0]
   81170:	ab02      	add	r3, sp, #8
   81172:	f803 1d01 	strb.w	r1, [r3, #-1]!
   81176:	6854      	ldr	r4, [r2, #4]
   81178:	4619      	mov	r1, r3
   8117a:	2201      	movs	r2, #1
   8117c:	47a0      	blx	r4
   8117e:	b002      	add	sp, #8
   81180:	bd10      	pop	{r4, pc}
	...

00081184 <_ZN7Serial_4readEv>:
   81184:	b538      	push	{r3, r4, r5, lr}
   81186:	4b0f      	ldr	r3, [pc, #60]	; (811c4 <_ZN7Serial_4readEv+0x40>)
   81188:	4604      	mov	r4, r0
   8118a:	f8d3 1200 	ldr.w	r1, [r3, #512]	; 0x200
   8118e:	f8d3 2204 	ldr.w	r2, [r3, #516]	; 0x204
   81192:	4291      	cmp	r1, r2
   81194:	d013      	beq.n	811be <_ZN7Serial_4readEv+0x3a>
   81196:	f8d3 2204 	ldr.w	r2, [r3, #516]	; 0x204
   8119a:	2002      	movs	r0, #2
   8119c:	5c9d      	ldrb	r5, [r3, r2]
   8119e:	f8d3 2204 	ldr.w	r2, [r3, #516]	; 0x204
   811a2:	3201      	adds	r2, #1
   811a4:	f3c2 0208 	ubfx	r2, r2, #0, #9
   811a8:	f8c3 2204 	str.w	r2, [r3, #516]	; 0x204
   811ac:	f7ff fc44 	bl	80a38 <_Z14USBD_Availablem>
   811b0:	b118      	cbz	r0, 811ba <_ZN7Serial_4readEv+0x36>
   811b2:	6823      	ldr	r3, [r4, #0]
   811b4:	4620      	mov	r0, r4
   811b6:	69db      	ldr	r3, [r3, #28]
   811b8:	4798      	blx	r3
   811ba:	4628      	mov	r0, r5
   811bc:	bd38      	pop	{r3, r4, r5, pc}
   811be:	f04f 30ff 	mov.w	r0, #4294967295	; 0xffffffff
   811c2:	bd38      	pop	{r3, r4, r5, pc}
   811c4:	20070e44 	andcs	r0, r7, r4, asr #28

000811c8 <_ZN7Serial_5flushEv>:
   811c8:	2003      	movs	r0, #3
   811ca:	f7ff bd52 	b.w	80c72 <_Z10USBD_Flushm>
	...

000811d0 <_ZN7Serial_6acceptEv>:
   811d0:	b5f8      	push	{r3, r4, r5, r6, r7, lr}
   811d2:	4b18      	ldr	r3, [pc, #96]	; (81234 <_ZN7Serial_6acceptEv+0x64>)
   811d4:	e853 3f00 	ldrex	r3, [r3]
   811d8:	4e16      	ldr	r6, [pc, #88]	; (81234 <_ZN7Serial_6acceptEv+0x64>)
   811da:	b113      	cbz	r3, 811e2 <_ZN7Serial_6acceptEv+0x12>
   811dc:	f3bf 8f2f 	clrex
   811e0:	bdf8      	pop	{r3, r4, r5, r6, r7, pc}
   811e2:	2301      	movs	r3, #1
   811e4:	e846 3300 	strex	r3, r3, [r6]
   811e8:	2b00      	cmp	r3, #0
   811ea:	d1f2      	bne.n	811d2 <_ZN7Serial_6acceptEv+0x2>
   811ec:	4b12      	ldr	r3, [pc, #72]	; (81238 <_ZN7Serial_6acceptEv+0x68>)
   811ee:	f8d3 4200 	ldr.w	r4, [r3, #512]	; 0x200
   811f2:	461f      	mov	r7, r3
   811f4:	3401      	adds	r4, #1
   811f6:	f3c4 0408 	ubfx	r4, r4, #0, #9
   811fa:	f8d7 3204 	ldr.w	r3, [r7, #516]	; 0x204
   811fe:	4d0e      	ldr	r5, [pc, #56]	; (81238 <_ZN7Serial_6acceptEv+0x68>)
   81200:	429c      	cmp	r4, r3
   81202:	d014      	beq.n	8122e <_ZN7Serial_6acceptEv+0x5e>
   81204:	2002      	movs	r0, #2
   81206:	f7ff fc17 	bl	80a38 <_Z14USBD_Availablem>
   8120a:	b920      	cbnz	r0, 81216 <_ZN7Serial_6acceptEv+0x46>
   8120c:	4b0b      	ldr	r3, [pc, #44]	; (8123c <_ZN7Serial_6acceptEv+0x6c>)
   8120e:	f44f 4280 	mov.w	r2, #16384	; 0x4000
   81212:	601a      	str	r2, [r3, #0]
   81214:	e00b      	b.n	8122e <_ZN7Serial_6acceptEv+0x5e>
   81216:	2002      	movs	r0, #2
   81218:	f7ff fc62 	bl	80ae0 <_Z9USBD_Recvm>
   8121c:	f8d5 3200 	ldr.w	r3, [r5, #512]	; 0x200
   81220:	f8c5 4200 	str.w	r4, [r5, #512]	; 0x200
   81224:	3401      	adds	r4, #1
   81226:	54e8      	strb	r0, [r5, r3]
   81228:	f3c4 0408 	ubfx	r4, r4, #0, #9
   8122c:	e7e5      	b.n	811fa <_ZN7Serial_6acceptEv+0x2a>
   8122e:	2300      	movs	r3, #0
   81230:	6033      	str	r3, [r6, #0]
   81232:	bdf8      	pop	{r3, r4, r5, r6, r7, pc}
   81234:	2007104c 	andcs	r1, r7, ip, asr #32
   81238:	20070e44 	andcs	r0, r7, r4, asr #28
   8123c:	400ac228 	andmi	ip, sl, r8, lsr #4

00081240 <_ZN7Serial_5writeEPKhj>:
   81240:	b510      	push	{r4, lr}
   81242:	4b09      	ldr	r3, [pc, #36]	; (81268 <_ZN7Serial_5writeEPKhj+0x28>)
   81244:	4604      	mov	r4, r0
   81246:	79db      	ldrb	r3, [r3, #7]
   81248:	f003 00ff 	and.w	r0, r3, #255	; 0xff
   8124c:	b143      	cbz	r3, 81260 <_ZN7Serial_5writeEPKhj+0x20>
   8124e:	2003      	movs	r0, #3
   81250:	f7ff fc58 	bl	80b04 <_Z9USBD_SendmPKvm>
   81254:	2800      	cmp	r0, #0
   81256:	dc05      	bgt.n	81264 <_ZN7Serial_5writeEPKhj+0x24>
   81258:	2301      	movs	r3, #1
   8125a:	6063      	str	r3, [r4, #4]
   8125c:	2000      	movs	r0, #0
   8125e:	bd10      	pop	{r4, pc}
   81260:	2301      	movs	r3, #1
   81262:	6063      	str	r3, [r4, #4]
   81264:	bd10      	pop	{r4, pc}
   81266:	bf00      	nop
   81268:	2007005c 	andcs	r0, r7, ip, asr r0

0008126c <_Z16CDC_GetInterfacePh>:
   8126c:	7803      	ldrb	r3, [r0, #0]
   8126e:	4903      	ldr	r1, [pc, #12]	; (8127c <_Z16CDC_GetInterfacePh+0x10>)
   81270:	3302      	adds	r3, #2
   81272:	7003      	strb	r3, [r0, #0]
   81274:	2242      	movs	r2, #66	; 0x42
   81276:	2000      	movs	r0, #0
   81278:	f7ff bc6a 	b.w	80b50 <_Z16USBD_SendControlhPKvm>
   8127c:	00085482 	andeq	r5, r8, r2, lsl #9

00081280 <_Z21CDC_GetOtherInterfacePh>:
   81280:	7803      	ldrb	r3, [r0, #0]
   81282:	4903      	ldr	r1, [pc, #12]	; (81290 <_Z21CDC_GetOtherInterfacePh+0x10>)
   81284:	3302      	adds	r3, #2
   81286:	7003      	strb	r3, [r0, #0]
   81288:	2242      	movs	r2, #66	; 0x42
   8128a:	2000      	movs	r0, #0
   8128c:	f7ff bc60 	b.w	80b50 <_Z16USBD_SendControlhPKvm>
   81290:	00085440 	andeq	r5, r8, r0, asr #8

00081294 <_Z9CDC_SetupR8USBSetup>:
   81294:	b508      	push	{r3, lr}
   81296:	7802      	ldrb	r2, [r0, #0]
   81298:	7843      	ldrb	r3, [r0, #1]
   8129a:	2aa1      	cmp	r2, #161	; 0xa1
   8129c:	d108      	bne.n	812b0 <_Z9CDC_SetupR8USBSetup+0x1c>
   8129e:	2b21      	cmp	r3, #33	; 0x21
   812a0:	f04f 0000 	mov.w	r0, #0
   812a4:	d129      	bne.n	812fa <_Z9CDC_SetupR8USBSetup+0x66>
   812a6:	4917      	ldr	r1, [pc, #92]	; (81304 <_Z9CDC_SetupR8USBSetup+0x70>)
   812a8:	2207      	movs	r2, #7
   812aa:	f7ff fc51 	bl	80b50 <_Z16USBD_SendControlhPKvm>
   812ae:	e025      	b.n	812fc <_Z9CDC_SetupR8USBSetup+0x68>
   812b0:	2a21      	cmp	r2, #33	; 0x21
   812b2:	d125      	bne.n	81300 <_Z9CDC_SetupR8USBSetup+0x6c>
   812b4:	2b20      	cmp	r3, #32
   812b6:	d104      	bne.n	812c2 <_Z9CDC_SetupR8USBSetup+0x2e>
   812b8:	2107      	movs	r1, #7
   812ba:	4812      	ldr	r0, [pc, #72]	; (81304 <_Z9CDC_SetupR8USBSetup+0x70>)
   812bc:	f7ff fc9a 	bl	80bf4 <_Z16USBD_RecvControlPvm>
   812c0:	e01c      	b.n	812fc <_Z9CDC_SetupR8USBSetup+0x68>
   812c2:	2b22      	cmp	r3, #34	; 0x22
   812c4:	d110      	bne.n	812e8 <_Z9CDC_SetupR8USBSetup+0x54>
   812c6:	7882      	ldrb	r2, [r0, #2]
   812c8:	4b0e      	ldr	r3, [pc, #56]	; (81304 <_Z9CDC_SetupR8USBSetup+0x70>)
   812ca:	71da      	strb	r2, [r3, #7]
   812cc:	681a      	ldr	r2, [r3, #0]
   812ce:	f5b2 6f96 	cmp.w	r2, #1200	; 0x4b0
   812d2:	d113      	bne.n	812fc <_Z9CDC_SetupR8USBSetup+0x68>
   812d4:	79db      	ldrb	r3, [r3, #7]
   812d6:	07db      	lsls	r3, r3, #31
   812d8:	d403      	bmi.n	812e2 <_Z9CDC_SetupR8USBSetup+0x4e>
   812da:	20fa      	movs	r0, #250	; 0xfa
   812dc:	f000 f942 	bl	81564 <initiateReset>
   812e0:	e00c      	b.n	812fc <_Z9CDC_SetupR8USBSetup+0x68>
   812e2:	f000 f945 	bl	81570 <cancelReset>
   812e6:	e009      	b.n	812fc <_Z9CDC_SetupR8USBSetup+0x68>
   812e8:	2b23      	cmp	r3, #35	; 0x23
   812ea:	d109      	bne.n	81300 <_Z9CDC_SetupR8USBSetup+0x6c>
   812ec:	7883      	ldrb	r3, [r0, #2]
   812ee:	78c2      	ldrb	r2, [r0, #3]
   812f0:	ea43 2202 	orr.w	r2, r3, r2, lsl #8
   812f4:	4b04      	ldr	r3, [pc, #16]	; (81308 <_Z9CDC_SetupR8USBSetup+0x74>)
   812f6:	601a      	str	r2, [r3, #0]
   812f8:	e000      	b.n	812fc <_Z9CDC_SetupR8USBSetup+0x68>
   812fa:	bd08      	pop	{r3, pc}
   812fc:	2001      	movs	r0, #1
   812fe:	bd08      	pop	{r3, pc}
   81300:	2000      	movs	r0, #0
   81302:	bd08      	pop	{r3, pc}
   81304:	2007005c 	andcs	r0, r7, ip, asr r0
   81308:	20070058 	andcs	r0, r7, r8, asr r0

0008130c <_GLOBAL__sub_I_cdc_rx_buffer>:
   8130c:	4b04      	ldr	r3, [pc, #16]	; (81320 <_GLOBAL__sub_I_cdc_rx_buffer+0x14>)
   8130e:	2200      	movs	r2, #0
   81310:	605a      	str	r2, [r3, #4]
   81312:	f44f 727a 	mov.w	r2, #1000	; 0x3e8
   81316:	609a      	str	r2, [r3, #8]
   81318:	4a02      	ldr	r2, [pc, #8]	; (81324 <_GLOBAL__sub_I_cdc_rx_buffer+0x18>)
   8131a:	601a      	str	r2, [r3, #0]
   8131c:	4770      	bx	lr
   8131e:	bf00      	nop
   81320:	20071050 	andcs	r1, r7, r0, asr r0
   81324:	00085420 	andeq	r5, r8, r0, lsr #8

00081328 <_ZN9UARTClass9availableEv>:
   81328:	6903      	ldr	r3, [r0, #16]
   8132a:	f8d3 0080 	ldr.w	r0, [r3, #128]	; 0x80
   8132e:	f8d3 3084 	ldr.w	r3, [r3, #132]	; 0x84
   81332:	1ac0      	subs	r0, r0, r3
   81334:	f000 007f 	and.w	r0, r0, #127	; 0x7f
   81338:	4770      	bx	lr

0008133a <_ZN9UARTClass4peekEv>:
   8133a:	6903      	ldr	r3, [r0, #16]
   8133c:	f8d3 1080 	ldr.w	r1, [r3, #128]	; 0x80
   81340:	f8d3 2084 	ldr.w	r2, [r3, #132]	; 0x84
   81344:	4291      	cmp	r1, r2
   81346:	bf1d      	ittte	ne
   81348:	f8d3 2084 	ldrne.w	r2, [r3, #132]	; 0x84
   8134c:	5c98      	ldrbne	r0, [r3, r2]
   8134e:	b2c0      	uxtbne	r0, r0
   81350:	f04f 30ff 	moveq.w	r0, #4294967295	; 0xffffffff
   81354:	4770      	bx	lr

00081356 <_ZN9UARTClass4readEv>:
   81356:	6903      	ldr	r3, [r0, #16]
   81358:	f8d3 1080 	ldr.w	r1, [r3, #128]	; 0x80
   8135c:	f8d3 2084 	ldr.w	r2, [r3, #132]	; 0x84
   81360:	4291      	cmp	r1, r2
   81362:	d00a      	beq.n	8137a <_ZN9UARTClass4readEv+0x24>
   81364:	f8d3 2084 	ldr.w	r2, [r3, #132]	; 0x84
   81368:	5c98      	ldrb	r0, [r3, r2]
   8136a:	f8d3 2084 	ldr.w	r2, [r3, #132]	; 0x84
   8136e:	3201      	adds	r2, #1
   81370:	f002 027f 	and.w	r2, r2, #127	; 0x7f
   81374:	f8c3 2084 	str.w	r2, [r3, #132]	; 0x84
   81378:	4770      	bx	lr
   8137a:	f04f 30ff 	mov.w	r0, #4294967295	; 0xffffffff
   8137e:	4770      	bx	lr

00081380 <_ZN9UARTClass5flushEv>:
   81380:	6943      	ldr	r3, [r0, #20]
   81382:	f8d3 1080 	ldr.w	r1, [r3, #128]	; 0x80
   81386:	f8d3 2084 	ldr.w	r2, [r3, #132]	; 0x84
   8138a:	4291      	cmp	r1, r2
   8138c:	d1f9      	bne.n	81382 <_ZN9UARTClass5flushEv+0x2>
   8138e:	6982      	ldr	r2, [r0, #24]
   81390:	6953      	ldr	r3, [r2, #20]
   81392:	059b      	lsls	r3, r3, #22
   81394:	d5fc      	bpl.n	81390 <_ZN9UARTClass5flushEv+0x10>
   81396:	4770      	bx	lr

00081398 <_ZN9UARTClass5writeEh>:
   81398:	6983      	ldr	r3, [r0, #24]
   8139a:	b570      	push	{r4, r5, r6, lr}
   8139c:	695e      	ldr	r6, [r3, #20]
   8139e:	6942      	ldr	r2, [r0, #20]
   813a0:	07b6      	lsls	r6, r6, #30
   813a2:	f8d2 5084 	ldr.w	r5, [r2, #132]	; 0x84
   813a6:	f8d2 4080 	ldr.w	r4, [r2, #128]	; 0x80
   813aa:	d501      	bpl.n	813b0 <_ZN9UARTClass5writeEh+0x18>
   813ac:	42a5      	cmp	r5, r4
   813ae:	d018      	beq.n	813e2 <_ZN9UARTClass5writeEh+0x4a>
   813b0:	f8d2 4080 	ldr.w	r4, [r2, #128]	; 0x80
   813b4:	4b0c      	ldr	r3, [pc, #48]	; (813e8 <_ZN9UARTClass5writeEh+0x50>)
   813b6:	3401      	adds	r4, #1
   813b8:	4023      	ands	r3, r4
   813ba:	2b00      	cmp	r3, #0
   813bc:	da03      	bge.n	813c6 <_ZN9UARTClass5writeEh+0x2e>
   813be:	3b01      	subs	r3, #1
   813c0:	f063 037f 	orn	r3, r3, #127	; 0x7f
   813c4:	3301      	adds	r3, #1
   813c6:	f8d2 4084 	ldr.w	r4, [r2, #132]	; 0x84
   813ca:	429c      	cmp	r4, r3
   813cc:	d0fb      	beq.n	813c6 <_ZN9UARTClass5writeEh+0x2e>
   813ce:	f8d2 4080 	ldr.w	r4, [r2, #128]	; 0x80
   813d2:	5511      	strb	r1, [r2, r4]
   813d4:	6942      	ldr	r2, [r0, #20]
   813d6:	f8c2 3080 	str.w	r3, [r2, #128]	; 0x80
   813da:	6983      	ldr	r3, [r0, #24]
   813dc:	2202      	movs	r2, #2
   813de:	609a      	str	r2, [r3, #8]
   813e0:	e000      	b.n	813e4 <_ZN9UARTClass5writeEh+0x4c>
   813e2:	61d9      	str	r1, [r3, #28]
   813e4:	2001      	movs	r0, #1
   813e6:	bd70      	pop	{r4, r5, r6, pc}
   813e8:	8000007f 	andhi	r0, r0, pc, ror r0

000813ec <_ZN9UARTClass3endEv>:
   813ec:	6903      	ldr	r3, [r0, #16]
   813ee:	b510      	push	{r4, lr}
   813f0:	f8d3 2084 	ldr.w	r2, [r3, #132]	; 0x84
   813f4:	4604      	mov	r4, r0
   813f6:	f8c3 2080 	str.w	r2, [r3, #128]	; 0x80
   813fa:	6803      	ldr	r3, [r0, #0]
   813fc:	695b      	ldr	r3, [r3, #20]
   813fe:	4798      	blx	r3
   81400:	7f23      	ldrb	r3, [r4, #28]
   81402:	2201      	movs	r2, #1
   81404:	b259      	sxtb	r1, r3
   81406:	f003 031f 	and.w	r3, r3, #31
   8140a:	fa02 f303 	lsl.w	r3, r2, r3
   8140e:	0949      	lsrs	r1, r1, #5
   81410:	4a04      	ldr	r2, [pc, #16]	; (81424 <_ZN9UARTClass3endEv+0x38>)
   81412:	3120      	adds	r1, #32
   81414:	f842 3021 	str.w	r3, [r2, r1, lsl #2]
   81418:	6a20      	ldr	r0, [r4, #32]
   8141a:	e8bd 4010 	ldmia.w	sp!, {r4, lr}
   8141e:	f7ff b8a1 	b.w	80564 <pmc_disable_periph_clk>
   81422:	bf00      	nop
   81424:	e000e100 	and	lr, r0, r0, lsl #2

00081428 <_ZN9UARTClassC1EP4Uart4IRQnmP10RingBufferS4_>:
   81428:	b530      	push	{r4, r5, lr}
   8142a:	2500      	movs	r5, #0
   8142c:	6045      	str	r5, [r0, #4]
   8142e:	f44f 757a 	mov.w	r5, #1000	; 0x3e8
   81432:	6085      	str	r5, [r0, #8]
   81434:	4d04      	ldr	r5, [pc, #16]	; (81448 <_ZN9UARTClassC1EP4Uart4IRQnmP10RingBufferS4_+0x20>)
   81436:	6181      	str	r1, [r0, #24]
   81438:	6005      	str	r5, [r0, #0]
   8143a:	9d03      	ldr	r5, [sp, #12]
   8143c:	7702      	strb	r2, [r0, #28]
   8143e:	6105      	str	r5, [r0, #16]
   81440:	9d04      	ldr	r5, [sp, #16]
   81442:	6203      	str	r3, [r0, #32]
   81444:	6145      	str	r5, [r0, #20]
   81446:	bd30      	pop	{r4, r5, pc}
   81448:	000854d0 	ldrdeq	r5, [r8], -r0

0008144c <_ZN9UARTClass4initEmm>:
   8144c:	b570      	push	{r4, r5, r6, lr}
   8144e:	4604      	mov	r4, r0
   81450:	6a00      	ldr	r0, [r0, #32]
   81452:	460d      	mov	r5, r1
   81454:	4616      	mov	r6, r2
   81456:	f7ff f863 	bl	80520 <pmc_enable_periph_clk>
   8145a:	69a3      	ldr	r3, [r4, #24]
   8145c:	f240 2202 	movw	r2, #514	; 0x202
   81460:	f8c3 2120 	str.w	r2, [r3, #288]	; 0x120
   81464:	22ac      	movs	r2, #172	; 0xac
   81466:	601a      	str	r2, [r3, #0]
   81468:	4a12      	ldr	r2, [pc, #72]	; (814b4 <_ZN9UARTClass4initEmm+0x68>)
   8146a:	605e      	str	r6, [r3, #4]
   8146c:	6812      	ldr	r2, [r2, #0]
   8146e:	2101      	movs	r1, #1
   81470:	fbb2 f5f5 	udiv	r5, r2, r5
   81474:	092d      	lsrs	r5, r5, #4
   81476:	f04f 32ff 	mov.w	r2, #4294967295	; 0xffffffff
   8147a:	621d      	str	r5, [r3, #32]
   8147c:	60da      	str	r2, [r3, #12]
   8147e:	2261      	movs	r2, #97	; 0x61
   81480:	609a      	str	r2, [r3, #8]
   81482:	7f22      	ldrb	r2, [r4, #28]
   81484:	b250      	sxtb	r0, r2
   81486:	f002 021f 	and.w	r2, r2, #31
   8148a:	fa01 f202 	lsl.w	r2, r1, r2
   8148e:	490a      	ldr	r1, [pc, #40]	; (814b8 <_ZN9UARTClass4initEmm+0x6c>)
   81490:	0940      	lsrs	r0, r0, #5
   81492:	f841 2020 	str.w	r2, [r1, r0, lsl #2]
   81496:	6921      	ldr	r1, [r4, #16]
   81498:	2200      	movs	r2, #0
   8149a:	f8c1 2084 	str.w	r2, [r1, #132]	; 0x84
   8149e:	f8c1 2080 	str.w	r2, [r1, #128]	; 0x80
   814a2:	6961      	ldr	r1, [r4, #20]
   814a4:	f8c1 2084 	str.w	r2, [r1, #132]	; 0x84
   814a8:	f8c1 2080 	str.w	r2, [r1, #128]	; 0x80
   814ac:	2250      	movs	r2, #80	; 0x50
   814ae:	601a      	str	r2, [r3, #0]
   814b0:	bd70      	pop	{r4, r5, r6, pc}
   814b2:	bf00      	nop
   814b4:	2007002c 	andcs	r0, r7, ip, lsr #32
   814b8:	e000e100 	and	lr, r0, r0, lsl #2

000814bc <_ZN9UARTClass5beginEm>:
   814bc:	f44f 6200 	mov.w	r2, #2048	; 0x800
   814c0:	f7ff bfc4 	b.w	8144c <_ZN9UARTClass4initEmm>

000814c4 <_ZN9UARTClass10IrqHandlerEv>:
   814c4:	b538      	push	{r3, r4, r5, lr}
   814c6:	6983      	ldr	r3, [r0, #24]
   814c8:	4604      	mov	r4, r0
   814ca:	695d      	ldr	r5, [r3, #20]
   814cc:	07ea      	lsls	r2, r5, #31
   814ce:	d504      	bpl.n	814da <_ZN9UARTClass10IrqHandlerEv+0x16>
   814d0:	6999      	ldr	r1, [r3, #24]
   814d2:	6900      	ldr	r0, [r0, #16]
   814d4:	b2c9      	uxtb	r1, r1
   814d6:	f000 f836 	bl	81546 <_ZN10RingBuffer10store_charEh>
   814da:	07ab      	lsls	r3, r5, #30
   814dc:	d516      	bpl.n	8150c <_ZN9UARTClass10IrqHandlerEv+0x48>
   814de:	6963      	ldr	r3, [r4, #20]
   814e0:	f8d3 1084 	ldr.w	r1, [r3, #132]	; 0x84
   814e4:	f8d3 2080 	ldr.w	r2, [r3, #128]	; 0x80
   814e8:	4291      	cmp	r1, r2
   814ea:	69a2      	ldr	r2, [r4, #24]
   814ec:	d00c      	beq.n	81508 <_ZN9UARTClass10IrqHandlerEv+0x44>
   814ee:	f8d3 1084 	ldr.w	r1, [r3, #132]	; 0x84
   814f2:	5c59      	ldrb	r1, [r3, r1]
   814f4:	b2c9      	uxtb	r1, r1
   814f6:	61d1      	str	r1, [r2, #28]
   814f8:	f8d3 2084 	ldr.w	r2, [r3, #132]	; 0x84
   814fc:	3201      	adds	r2, #1
   814fe:	f002 027f 	and.w	r2, r2, #127	; 0x7f
   81502:	f8c3 2084 	str.w	r2, [r3, #132]	; 0x84
   81506:	e001      	b.n	8150c <_ZN9UARTClass10IrqHandlerEv+0x48>
   81508:	2302      	movs	r3, #2
   8150a:	60d3      	str	r3, [r2, #12]
   8150c:	f015 0f60 	tst.w	r5, #96	; 0x60
   81510:	d004      	beq.n	8151c <_ZN9UARTClass10IrqHandlerEv+0x58>
   81512:	69a3      	ldr	r3, [r4, #24]
   81514:	681a      	ldr	r2, [r3, #0]
   81516:	f442 7280 	orr.w	r2, r2, #256	; 0x100
   8151a:	601a      	str	r2, [r3, #0]
   8151c:	bd38      	pop	{r3, r4, r5, pc}
	...

00081520 <_watchdogDefaultSetup>:
   81520:	4801      	ldr	r0, [pc, #4]	; (81528 <_watchdogDefaultSetup+0x8>)
   81522:	f000 b8b1 	b.w	81688 <WDT_Disable>
   81526:	bf00      	nop
   81528:	400e1a50 	andmi	r1, lr, r0, asr sl

0008152c <_ZN10RingBufferC1Ev>:
   8152c:	b510      	push	{r4, lr}
   8152e:	2100      	movs	r1, #0
   81530:	2280      	movs	r2, #128	; 0x80
   81532:	4604      	mov	r4, r0
   81534:	f000 faba 	bl	81aac <memset>
   81538:	2300      	movs	r3, #0
   8153a:	f8c4 3080 	str.w	r3, [r4, #128]	; 0x80
   8153e:	4620      	mov	r0, r4
   81540:	f8c4 3084 	str.w	r3, [r4, #132]	; 0x84
   81544:	bd10      	pop	{r4, pc}

00081546 <_ZN10RingBuffer10store_charEh>:
   81546:	f8d0 3080 	ldr.w	r3, [r0, #128]	; 0x80
   8154a:	f8d0 2084 	ldr.w	r2, [r0, #132]	; 0x84
   8154e:	3301      	adds	r3, #1
   81550:	f003 037f 	and.w	r3, r3, #127	; 0x7f
   81554:	4293      	cmp	r3, r2
   81556:	d004      	beq.n	81562 <_ZN10RingBuffer10store_charEh+0x1c>
   81558:	f8d0 2080 	ldr.w	r2, [r0, #128]	; 0x80
   8155c:	5481      	strb	r1, [r0, r2]
   8155e:	f8c0 3080 	str.w	r3, [r0, #128]	; 0x80
   81562:	4770      	bx	lr

00081564 <initiateReset>:
   81564:	4b01      	ldr	r3, [pc, #4]	; (8156c <initiateReset+0x8>)
   81566:	6018      	str	r0, [r3, #0]
   81568:	4770      	bx	lr
   8156a:	bf00      	nop
   8156c:	20070064 	andcs	r0, r7, r4, rrx

00081570 <cancelReset>:
   81570:	4b02      	ldr	r3, [pc, #8]	; (8157c <cancelReset+0xc>)
   81572:	f04f 32ff 	mov.w	r2, #4294967295	; 0xffffffff
   81576:	601a      	str	r2, [r3, #0]
   81578:	4770      	bx	lr
   8157a:	bf00      	nop
   8157c:	20070064 	andcs	r0, r7, r4, rrx

00081580 <tickReset>:
   81580:	4a05      	ldr	r2, [pc, #20]	; (81598 <tickReset+0x18>)
   81582:	b508      	push	{r3, lr}
   81584:	6813      	ldr	r3, [r2, #0]
   81586:	1c59      	adds	r1, r3, #1
   81588:	d004      	beq.n	81594 <tickReset+0x14>
   8158a:	3b01      	subs	r3, #1
   8158c:	6013      	str	r3, [r2, #0]
   8158e:	b90b      	cbnz	r3, 81594 <tickReset+0x14>
   81590:	4b02      	ldr	r3, [pc, #8]	; (8159c <tickReset+0x1c>)
   81592:	4798      	blx	r3
   81594:	bd08      	pop	{r3, pc}
   81596:	bf00      	nop
   81598:	20070064 	andcs	r0, r7, r4, rrx
   8159c:	20070001 	andcs	r0, r7, r1

000815a0 <_ZN5Print5writeEPKhj>:
   815a0:	b5f8      	push	{r3, r4, r5, r6, r7, lr}
   815a2:	4605      	mov	r5, r0
   815a4:	460e      	mov	r6, r1
   815a6:	4617      	mov	r7, r2
   815a8:	2400      	movs	r4, #0
   815aa:	42bc      	cmp	r4, r7
   815ac:	d007      	beq.n	815be <_ZN5Print5writeEPKhj+0x1e>
   815ae:	682b      	ldr	r3, [r5, #0]
   815b0:	4628      	mov	r0, r5
   815b2:	681b      	ldr	r3, [r3, #0]
   815b4:	5d31      	ldrb	r1, [r6, r4]
   815b6:	4798      	blx	r3
   815b8:	b108      	cbz	r0, 815be <_ZN5Print5writeEPKhj+0x1e>
   815ba:	3401      	adds	r4, #1
   815bc:	e7f5      	b.n	815aa <_ZN5Print5writeEPKhj+0xa>
   815be:	4620      	mov	r0, r4
   815c0:	bdf8      	pop	{r3, r4, r5, r6, r7, pc}

000815c2 <_ZN13PluggableUSB_12getInterfaceEPh>:
   815c2:	b570      	push	{r4, r5, r6, lr}
   815c4:	6844      	ldr	r4, [r0, #4]
   815c6:	460e      	mov	r6, r1
   815c8:	2500      	movs	r5, #0
   815ca:	b14c      	cbz	r4, 815e0 <_ZN13PluggableUSB_12getInterfaceEPh+0x1e>
   815cc:	6823      	ldr	r3, [r4, #0]
   815ce:	4620      	mov	r0, r4
   815d0:	685b      	ldr	r3, [r3, #4]
   815d2:	4631      	mov	r1, r6
   815d4:	4798      	blx	r3
   815d6:	2800      	cmp	r0, #0
   815d8:	db04      	blt.n	815e4 <_ZN13PluggableUSB_12getInterfaceEPh+0x22>
   815da:	4405      	add	r5, r0
   815dc:	68e4      	ldr	r4, [r4, #12]
   815de:	e7f4      	b.n	815ca <_ZN13PluggableUSB_12getInterfaceEPh+0x8>
   815e0:	4628      	mov	r0, r5
   815e2:	bd70      	pop	{r4, r5, r6, pc}
   815e4:	f04f 30ff 	mov.w	r0, #4294967295	; 0xffffffff
   815e8:	bd70      	pop	{r4, r5, r6, pc}

000815ea <_ZN13PluggableUSB_13getDescriptorER8USBSetup>:
   815ea:	b538      	push	{r3, r4, r5, lr}
   815ec:	6844      	ldr	r4, [r0, #4]
   815ee:	460d      	mov	r5, r1
   815f0:	b13c      	cbz	r4, 81602 <_ZN13PluggableUSB_13getDescriptorER8USBSetup+0x18>
   815f2:	6823      	ldr	r3, [r4, #0]
   815f4:	4620      	mov	r0, r4
   815f6:	689b      	ldr	r3, [r3, #8]
   815f8:	4629      	mov	r1, r5
   815fa:	4798      	blx	r3
   815fc:	b910      	cbnz	r0, 81604 <_ZN13PluggableUSB_13getDescriptorER8USBSetup+0x1a>
   815fe:	68e4      	ldr	r4, [r4, #12]
   81600:	e7f6      	b.n	815f0 <_ZN13PluggableUSB_13getDescriptorER8USBSetup+0x6>
   81602:	4620      	mov	r0, r4
   81604:	bd38      	pop	{r3, r4, r5, pc}

00081606 <_ZN13PluggableUSB_12getShortNameEPc>:
   81606:	b538      	push	{r3, r4, r5, lr}
   81608:	6844      	ldr	r4, [r0, #4]
   8160a:	460d      	mov	r5, r1
   8160c:	b13c      	cbz	r4, 8161e <_ZN13PluggableUSB_12getShortNameEPc+0x18>
   8160e:	6823      	ldr	r3, [r4, #0]
   81610:	4620      	mov	r0, r4
   81612:	4629      	mov	r1, r5
   81614:	68db      	ldr	r3, [r3, #12]
   81616:	4798      	blx	r3
   81618:	68e4      	ldr	r4, [r4, #12]
   8161a:	4405      	add	r5, r0
   8161c:	e7f6      	b.n	8160c <_ZN13PluggableUSB_12getShortNameEPc+0x6>
   8161e:	702c      	strb	r4, [r5, #0]
   81620:	bd38      	pop	{r3, r4, r5, pc}

00081622 <_ZN13PluggableUSB_5setupER8USBSetup>:
   81622:	b538      	push	{r3, r4, r5, lr}
   81624:	6844      	ldr	r4, [r0, #4]
   81626:	460d      	mov	r5, r1
   81628:	b13c      	cbz	r4, 8163a <_ZN13PluggableUSB_5setupER8USBSetup+0x18>
   8162a:	6823      	ldr	r3, [r4, #0]
   8162c:	4620      	mov	r0, r4
   8162e:	681b      	ldr	r3, [r3, #0]
   81630:	4629      	mov	r1, r5
   81632:	4798      	blx	r3
   81634:	b918      	cbnz	r0, 8163e <_ZN13PluggableUSB_5setupER8USBSetup+0x1c>
   81636:	68e4      	ldr	r4, [r4, #12]
   81638:	e7f6      	b.n	81628 <_ZN13PluggableUSB_5setupER8USBSetup+0x6>
   8163a:	4620      	mov	r0, r4
   8163c:	bd38      	pop	{r3, r4, r5, pc}
   8163e:	2001      	movs	r0, #1
   81640:	bd38      	pop	{r3, r4, r5, pc}
	...

00081644 <_Z12PluggableUSBv>:
   81644:	4a07      	ldr	r2, [pc, #28]	; (81664 <_Z12PluggableUSBv+0x20>)
   81646:	6813      	ldr	r3, [r2, #0]
   81648:	f013 0101 	ands.w	r1, r3, #1
   8164c:	d107      	bne.n	8165e <_Z12PluggableUSBv+0x1a>
   8164e:	4b06      	ldr	r3, [pc, #24]	; (81668 <_Z12PluggableUSBv+0x24>)
   81650:	2002      	movs	r0, #2
   81652:	7018      	strb	r0, [r3, #0]
   81654:	2004      	movs	r0, #4
   81656:	7058      	strb	r0, [r3, #1]
   81658:	6059      	str	r1, [r3, #4]
   8165a:	2301      	movs	r3, #1
   8165c:	6013      	str	r3, [r2, #0]
   8165e:	4802      	ldr	r0, [pc, #8]	; (81668 <_Z12PluggableUSBv+0x24>)
   81660:	4770      	bx	lr
   81662:	bf00      	nop
   81664:	2007106c 	andcs	r1, r7, ip, rrx
   81668:	20071064 	andcs	r1, r7, r4, rrx

0008166c <TimeTick_Increment>:
   8166c:	4b02      	ldr	r3, [pc, #8]	; (81678 <TimeTick_Increment+0xc>)
   8166e:	681a      	ldr	r2, [r3, #0]
   81670:	3201      	adds	r2, #1
   81672:	601a      	str	r2, [r3, #0]
   81674:	4770      	bx	lr
   81676:	bf00      	nop
   81678:	20071070 	andcs	r1, r7, r0, ror r0

0008167c <GetTickCount>:
   8167c:	4b01      	ldr	r3, [pc, #4]	; (81684 <GetTickCount+0x8>)
   8167e:	6818      	ldr	r0, [r3, #0]
   81680:	4770      	bx	lr
   81682:	bf00      	nop
   81684:	20071070 	andcs	r1, r7, r0, ror r0

00081688 <WDT_Disable>:
   81688:	f44f 4300 	mov.w	r3, #32768	; 0x8000
   8168c:	6043      	str	r3, [r0, #4]
   8168e:	4770      	bx	lr

00081690 <UDD_SetStack>:
   81690:	4b01      	ldr	r3, [pc, #4]	; (81698 <UDD_SetStack+0x8>)
   81692:	6018      	str	r0, [r3, #0]
   81694:	4770      	bx	lr
   81696:	bf00      	nop
   81698:	20070e1c 	andcs	r0, r7, ip, lsl lr

0008169c <UDD_Init>:
   8169c:	b510      	push	{r4, lr}
   8169e:	2300      	movs	r3, #0
   816a0:	4a2a      	ldr	r2, [pc, #168]	; (8174c <UDD_Init+0xb0>)
   816a2:	2400      	movs	r4, #0
   816a4:	f842 4023 	str.w	r4, [r2, r3, lsl #2]
   816a8:	4a29      	ldr	r2, [pc, #164]	; (81750 <UDD_Init+0xb4>)
   816aa:	f842 4023 	str.w	r4, [r2, r3, lsl #2]
   816ae:	3301      	adds	r3, #1
   816b0:	2b0a      	cmp	r3, #10
   816b2:	d1f5      	bne.n	816a0 <UDD_Init+0x4>
   816b4:	4b27      	ldr	r3, [pc, #156]	; (81754 <UDD_Init+0xb8>)
   816b6:	2028      	movs	r0, #40	; 0x28
   816b8:	4798      	blx	r3
   816ba:	4b27      	ldr	r3, [pc, #156]	; (81758 <UDD_Init+0xbc>)
   816bc:	4798      	blx	r3
   816be:	4620      	mov	r0, r4
   816c0:	4b26      	ldr	r3, [pc, #152]	; (8175c <UDD_Init+0xc0>)
   816c2:	4798      	blx	r3
   816c4:	4b26      	ldr	r3, [pc, #152]	; (81760 <UDD_Init+0xc4>)
   816c6:	4798      	blx	r3
   816c8:	4b26      	ldr	r3, [pc, #152]	; (81764 <UDD_Init+0xc8>)
   816ca:	f44f 7280 	mov.w	r2, #256	; 0x100
   816ce:	f883 4328 	strb.w	r4, [r3, #808]	; 0x328
   816d2:	605a      	str	r2, [r3, #4]
   816d4:	4b24      	ldr	r3, [pc, #144]	; (81768 <UDD_Init+0xcc>)
   816d6:	4620      	mov	r0, r4
   816d8:	f8d3 2800 	ldr.w	r2, [r3, #2048]	; 0x800
   816dc:	f022 7280 	bic.w	r2, r2, #16777216	; 0x1000000
   816e0:	f8c3 2800 	str.w	r2, [r3, #2048]	; 0x800
   816e4:	f8d3 2800 	ldr.w	r2, [r3, #2048]	; 0x800
   816e8:	f042 7200 	orr.w	r2, r2, #33554432	; 0x2000000
   816ec:	f8c3 2800 	str.w	r2, [r3, #2048]	; 0x800
   816f0:	f8d3 2800 	ldr.w	r2, [r3, #2048]	; 0x800
   816f4:	f022 7280 	bic.w	r2, r2, #16777216	; 0x1000000
   816f8:	f8c3 2800 	str.w	r2, [r3, #2048]	; 0x800
   816fc:	f8d3 2800 	ldr.w	r2, [r3, #2048]	; 0x800
   81700:	f422 5280 	bic.w	r2, r2, #4096	; 0x1000
   81704:	f8c3 2800 	str.w	r2, [r3, #2048]	; 0x800
   81708:	f8d3 2800 	ldr.w	r2, [r3, #2048]	; 0x800
   8170c:	f442 5280 	orr.w	r2, r2, #4096	; 0x1000
   81710:	f8c3 2800 	str.w	r2, [r3, #2048]	; 0x800
   81714:	f8d3 2800 	ldr.w	r2, [r3, #2048]	; 0x800
   81718:	f442 4200 	orr.w	r2, r2, #32768	; 0x8000
   8171c:	f8c3 2800 	str.w	r2, [r3, #2048]	; 0x800
   81720:	f8d3 2800 	ldr.w	r2, [r3, #2048]	; 0x800
   81724:	f422 4280 	bic.w	r2, r2, #16384	; 0x4000
   81728:	f8c3 2800 	str.w	r2, [r3, #2048]	; 0x800
   8172c:	681a      	ldr	r2, [r3, #0]
   8172e:	f422 5280 	bic.w	r2, r2, #4096	; 0x1000
   81732:	601a      	str	r2, [r3, #0]
   81734:	681a      	ldr	r2, [r3, #0]
   81736:	f422 6240 	bic.w	r2, r2, #3072	; 0xc00
   8173a:	601a      	str	r2, [r3, #0]
   8173c:	f8d3 2800 	ldr.w	r2, [r3, #2048]	; 0x800
   81740:	f442 4280 	orr.w	r2, r2, #16384	; 0x4000
   81744:	f8c3 2800 	str.w	r2, [r3, #2048]	; 0x800
   81748:	bd10      	pop	{r4, pc}
   8174a:	bf00      	nop
   8174c:	2007109c 	mulcs	r7, ip, r0
   81750:	20071074 	andcs	r1, r7, r4, ror r0
   81754:	00080521 	andeq	r0, r8, r1, lsr #10
   81758:	0008050d 	andeq	r0, r8, sp, lsl #10
   8175c:	000805a5 	andeq	r0, r8, r5, lsr #11
   81760:	000805b9 			; <UNDEFINED> instruction: 0x000805b9
   81764:	e000e100 	and	lr, r0, r0, lsl #2
   81768:	400ac000 	andmi	ip, sl, r0

0008176c <UDD_Attach>:
   8176c:	4b11      	ldr	r3, [pc, #68]	; (817b4 <UDD_Attach+0x48>)
   8176e:	b510      	push	{r4, lr}
   81770:	6819      	ldr	r1, [r3, #0]
   81772:	b672      	cpsid	i
   81774:	f3bf 8f5f 	dmb	sy
   81778:	461a      	mov	r2, r3
   8177a:	2300      	movs	r3, #0
   8177c:	6013      	str	r3, [r2, #0]
   8177e:	4b0e      	ldr	r3, [pc, #56]	; (817b8 <UDD_Attach+0x4c>)
   81780:	f8d3 0800 	ldr.w	r0, [r3, #2048]	; 0x800
   81784:	461c      	mov	r4, r3
   81786:	f420 4080 	bic.w	r0, r0, #16384	; 0x4000
   8178a:	f8c3 0800 	str.w	r0, [r3, #2048]	; 0x800
   8178e:	f8d4 0804 	ldr.w	r0, [r4, #2052]	; 0x804
   81792:	4b09      	ldr	r3, [pc, #36]	; (817b8 <UDD_Attach+0x4c>)
   81794:	0440      	lsls	r0, r0, #17
   81796:	d5fa      	bpl.n	8178e <UDD_Attach+0x22>
   81798:	6818      	ldr	r0, [r3, #0]
   8179a:	f420 7080 	bic.w	r0, r0, #256	; 0x100
   8179e:	6018      	str	r0, [r3, #0]
   817a0:	2008      	movs	r0, #8
   817a2:	6198      	str	r0, [r3, #24]
   817a4:	b121      	cbz	r1, 817b0 <UDD_Attach+0x44>
   817a6:	2301      	movs	r3, #1
   817a8:	6013      	str	r3, [r2, #0]
   817aa:	f3bf 8f5f 	dmb	sy
   817ae:	b662      	cpsie	i
   817b0:	bd10      	pop	{r4, pc}
   817b2:	bf00      	nop
   817b4:	20070068 	andcs	r0, r7, r8, rrx
   817b8:	400ac000 	andmi	ip, sl, r0

000817bc <UDD_InitEP>:
   817bc:	4b09      	ldr	r3, [pc, #36]	; (817e4 <UDD_InitEP+0x28>)
   817be:	f000 000f 	and.w	r0, r0, #15
   817c2:	f100 0240 	add.w	r2, r0, #64	; 0x40
   817c6:	f843 1022 	str.w	r1, [r3, r2, lsl #2]
   817ca:	2201      	movs	r2, #1
   817cc:	4082      	lsls	r2, r0
   817ce:	69d9      	ldr	r1, [r3, #28]
   817d0:	430a      	orrs	r2, r1
   817d2:	61da      	str	r2, [r3, #28]
   817d4:	f503 7398 	add.w	r3, r3, #304	; 0x130
   817d8:	f853 3020 	ldr.w	r3, [r3, r0, lsl #2]
   817dc:	035b      	lsls	r3, r3, #13
   817de:	d400      	bmi.n	817e2 <UDD_InitEP+0x26>
   817e0:	e7fe      	b.n	817e0 <UDD_InitEP+0x24>
   817e2:	4770      	bx	lr
   817e4:	400ac000 	andmi	ip, sl, r0

000817e8 <UDD_InitEndpoints>:
   817e8:	b530      	push	{r4, r5, lr}
   817ea:	2301      	movs	r3, #1
   817ec:	428b      	cmp	r3, r1
   817ee:	d214      	bcs.n	8181a <UDD_InitEndpoints+0x32>
   817f0:	4a0a      	ldr	r2, [pc, #40]	; (8181c <UDD_InitEndpoints+0x34>)
   817f2:	f850 5f04 	ldr.w	r5, [r0, #4]!
   817f6:	f103 0440 	add.w	r4, r3, #64	; 0x40
   817fa:	f842 5024 	str.w	r5, [r2, r4, lsl #2]
   817fe:	2401      	movs	r4, #1
   81800:	409c      	lsls	r4, r3
   81802:	69d5      	ldr	r5, [r2, #28]
   81804:	432c      	orrs	r4, r5
   81806:	61d4      	str	r4, [r2, #28]
   81808:	4a05      	ldr	r2, [pc, #20]	; (81820 <UDD_InitEndpoints+0x38>)
   8180a:	441a      	add	r2, r3
   8180c:	0092      	lsls	r2, r2, #2
   8180e:	6812      	ldr	r2, [r2, #0]
   81810:	0352      	lsls	r2, r2, #13
   81812:	d400      	bmi.n	81816 <UDD_InitEndpoints+0x2e>
   81814:	e7fe      	b.n	81814 <UDD_InitEndpoints+0x2c>
   81816:	3301      	adds	r3, #1
   81818:	e7e8      	b.n	817ec <UDD_InitEndpoints+0x4>
   8181a:	bd30      	pop	{r4, r5, pc}
   8181c:	400ac000 	andmi	ip, sl, r0
   81820:	1002b04c 	andne	fp, r2, ip, asr #32

00081824 <UDD_WaitIN>:
   81824:	4b02      	ldr	r3, [pc, #8]	; (81830 <UDD_WaitIN+0xc>)
   81826:	f8d3 3130 	ldr.w	r3, [r3, #304]	; 0x130
   8182a:	07db      	lsls	r3, r3, #31
   8182c:	d5fa      	bpl.n	81824 <UDD_WaitIN>
   8182e:	4770      	bx	lr
   81830:	400ac000 	andmi	ip, sl, r0

00081834 <UDD_WaitOUT>:
   81834:	4b02      	ldr	r3, [pc, #8]	; (81840 <UDD_WaitOUT+0xc>)
   81836:	f8d3 3130 	ldr.w	r3, [r3, #304]	; 0x130
   8183a:	079b      	lsls	r3, r3, #30
   8183c:	d5fa      	bpl.n	81834 <UDD_WaitOUT>
   8183e:	4770      	bx	lr
   81840:	400ac000 	andmi	ip, sl, r0

00081844 <UDD_ClearIN>:
   81844:	4b03      	ldr	r3, [pc, #12]	; (81854 <UDD_ClearIN+0x10>)
   81846:	2201      	movs	r2, #1
   81848:	f8c3 2160 	str.w	r2, [r3, #352]	; 0x160
   8184c:	4b02      	ldr	r3, [pc, #8]	; (81858 <UDD_ClearIN+0x14>)
   8184e:	2200      	movs	r2, #0
   81850:	601a      	str	r2, [r3, #0]
   81852:	4770      	bx	lr
   81854:	400ac000 	andmi	ip, sl, r0
   81858:	2007109c 	mulcs	r7, ip, r0

0008185c <UDD_ClearOUT>:
   8185c:	4b03      	ldr	r3, [pc, #12]	; (8186c <UDD_ClearOUT+0x10>)
   8185e:	2202      	movs	r2, #2
   81860:	f8c3 2160 	str.w	r2, [r3, #352]	; 0x160
   81864:	4b02      	ldr	r3, [pc, #8]	; (81870 <UDD_ClearOUT+0x14>)
   81866:	2200      	movs	r2, #0
   81868:	601a      	str	r2, [r3, #0]
   8186a:	4770      	bx	lr
   8186c:	400ac000 	andmi	ip, sl, r0
   81870:	20071074 	andcs	r1, r7, r4, ror r0

00081874 <UDD_ReceivedSetupInt>:
   81874:	4b02      	ldr	r3, [pc, #8]	; (81880 <UDD_ReceivedSetupInt+0xc>)
   81876:	f8d3 0130 	ldr.w	r0, [r3, #304]	; 0x130
   8187a:	f000 0004 	and.w	r0, r0, #4
   8187e:	4770      	bx	lr
   81880:	400ac000 	andmi	ip, sl, r0

00081884 <UDD_ClearSetupInt>:
   81884:	4b02      	ldr	r3, [pc, #8]	; (81890 <UDD_ClearSetupInt+0xc>)
   81886:	2204      	movs	r2, #4
   81888:	f8c3 2160 	str.w	r2, [r3, #352]	; 0x160
   8188c:	4770      	bx	lr
   8188e:	bf00      	nop
   81890:	400ac000 	andmi	ip, sl, r0

00081894 <UDD_Send>:
   81894:	b5f8      	push	{r3, r4, r5, r6, r7, lr}
   81896:	4615      	mov	r5, r2
   81898:	03c2      	lsls	r2, r0, #15
   8189a:	f102 5200 	add.w	r2, r2, #536870912	; 0x20000000
   8189e:	4603      	mov	r3, r0
   818a0:	f502 12c0 	add.w	r2, r2, #1572864	; 0x180000
   818a4:	0098      	lsls	r0, r3, #2
   818a6:	f100 4080 	add.w	r0, r0, #1073741824	; 0x40000000
   818aa:	f500 242c 	add.w	r4, r0, #704512	; 0xac000
   818ae:	f8d4 4130 	ldr.w	r4, [r4, #304]	; 0x130
   818b2:	07e4      	lsls	r4, r4, #31
   818b4:	d5f6      	bpl.n	818a4 <UDD_Send+0x10>
   818b6:	4c17      	ldr	r4, [pc, #92]	; (81914 <UDD_Send+0x80>)
   818b8:	b93b      	cbnz	r3, 818ca <UDD_Send+0x36>
   818ba:	6826      	ldr	r6, [r4, #0]
   818bc:	442e      	add	r6, r5
   818be:	2e40      	cmp	r6, #64	; 0x40
   818c0:	d906      	bls.n	818d0 <UDD_Send+0x3c>
   818c2:	6825      	ldr	r5, [r4, #0]
   818c4:	f1c5 0540 	rsb	r5, r5, #64	; 0x40
   818c8:	e002      	b.n	818d0 <UDD_Send+0x3c>
   818ca:	2600      	movs	r6, #0
   818cc:	f844 6023 	str.w	r6, [r4, r3, lsl #2]
   818d0:	f854 6023 	ldr.w	r6, [r4, r3, lsl #2]
   818d4:	4416      	add	r6, r2
   818d6:	2200      	movs	r2, #0
   818d8:	42aa      	cmp	r2, r5
   818da:	d003      	beq.n	818e4 <UDD_Send+0x50>
   818dc:	5c8f      	ldrb	r7, [r1, r2]
   818de:	54b7      	strb	r7, [r6, r2]
   818e0:	3201      	adds	r2, #1
   818e2:	e7f9      	b.n	818d8 <UDD_Send+0x44>
   818e4:	f854 2023 	ldr.w	r2, [r4, r3, lsl #2]
   818e8:	442a      	add	r2, r5
   818ea:	f844 2023 	str.w	r2, [r4, r3, lsl #2]
   818ee:	b933      	cbnz	r3, 818fe <UDD_Send+0x6a>
   818f0:	4b08      	ldr	r3, [pc, #32]	; (81914 <UDD_Send+0x80>)
   818f2:	681b      	ldr	r3, [r3, #0]
   818f4:	2b40      	cmp	r3, #64	; 0x40
   818f6:	d10b      	bne.n	81910 <UDD_Send+0x7c>
   818f8:	4b07      	ldr	r3, [pc, #28]	; (81918 <UDD_Send+0x84>)
   818fa:	4798      	blx	r3
   818fc:	e008      	b.n	81910 <UDD_Send+0x7c>
   818fe:	f500 232c 	add.w	r3, r0, #704512	; 0xac000
   81902:	2201      	movs	r2, #1
   81904:	f8c3 2160 	str.w	r2, [r3, #352]	; 0x160
   81908:	f44f 4280 	mov.w	r2, #16384	; 0x4000
   8190c:	f8c3 2220 	str.w	r2, [r3, #544]	; 0x220
   81910:	4628      	mov	r0, r5
   81912:	bdf8      	pop	{r3, r4, r5, r6, r7, pc}
   81914:	2007109c 	mulcs	r7, ip, r0
   81918:	00081845 	andeq	r1, r8, r5, asr #16

0008191c <UDD_Send8>:
   8191c:	4b07      	ldr	r3, [pc, #28]	; (8193c <UDD_Send8+0x20>)
   8191e:	f853 2020 	ldr.w	r2, [r3, r0, lsl #2]
   81922:	eb02 32c0 	add.w	r2, r2, r0, lsl #15
   81926:	f102 5200 	add.w	r2, r2, #536870912	; 0x20000000
   8192a:	f502 12c0 	add.w	r2, r2, #1572864	; 0x180000
   8192e:	7011      	strb	r1, [r2, #0]
   81930:	f853 2020 	ldr.w	r2, [r3, r0, lsl #2]
   81934:	3201      	adds	r2, #1
   81936:	f843 2020 	str.w	r2, [r3, r0, lsl #2]
   8193a:	4770      	bx	lr
   8193c:	2007109c 	mulcs	r7, ip, r0

00081940 <UDD_Recv8>:
   81940:	4a08      	ldr	r2, [pc, #32]	; (81964 <UDD_Recv8+0x24>)
   81942:	4603      	mov	r3, r0
   81944:	f852 1020 	ldr.w	r1, [r2, r0, lsl #2]
   81948:	eb01 31c0 	add.w	r1, r1, r0, lsl #15
   8194c:	f101 5100 	add.w	r1, r1, #536870912	; 0x20000000
   81950:	f501 11c0 	add.w	r1, r1, #1572864	; 0x180000
   81954:	7808      	ldrb	r0, [r1, #0]
   81956:	f852 1023 	ldr.w	r1, [r2, r3, lsl #2]
   8195a:	3101      	adds	r1, #1
   8195c:	f842 1023 	str.w	r1, [r2, r3, lsl #2]
   81960:	4770      	bx	lr
   81962:	bf00      	nop
   81964:	20071074 	andcs	r1, r7, r4, ror r0

00081968 <UDD_Recv>:
   81968:	b570      	push	{r4, r5, r6, lr}
   8196a:	4c0b      	ldr	r4, [pc, #44]	; (81998 <UDD_Recv+0x30>)
   8196c:	03c3      	lsls	r3, r0, #15
   8196e:	f103 5300 	add.w	r3, r3, #536870912	; 0x20000000
   81972:	f854 5020 	ldr.w	r5, [r4, r0, lsl #2]
   81976:	f503 13c0 	add.w	r3, r3, #1572864	; 0x180000
   8197a:	441d      	add	r5, r3
   8197c:	2300      	movs	r3, #0
   8197e:	4293      	cmp	r3, r2
   81980:	d003      	beq.n	8198a <UDD_Recv+0x22>
   81982:	5cee      	ldrb	r6, [r5, r3]
   81984:	54ce      	strb	r6, [r1, r3]
   81986:	3301      	adds	r3, #1
   81988:	e7f9      	b.n	8197e <UDD_Recv+0x16>
   8198a:	f854 2020 	ldr.w	r2, [r4, r0, lsl #2]
   8198e:	4413      	add	r3, r2
   81990:	f844 3020 	str.w	r3, [r4, r0, lsl #2]
   81994:	bd70      	pop	{r4, r5, r6, pc}
   81996:	bf00      	nop
   81998:	20071074 	andcs	r1, r7, r4, ror r0

0008199c <UDD_Stall>:
   8199c:	4b03      	ldr	r3, [pc, #12]	; (819ac <UDD_Stall+0x10>)
   8199e:	2201      	movs	r2, #1
   819a0:	61da      	str	r2, [r3, #28]
   819a2:	f44f 2200 	mov.w	r2, #524288	; 0x80000
   819a6:	f8c3 21f0 	str.w	r2, [r3, #496]	; 0x1f0
   819aa:	4770      	bx	lr
   819ac:	400ac000 	andmi	ip, sl, r0

000819b0 <UDD_FifoByteCount>:
   819b0:	4b03      	ldr	r3, [pc, #12]	; (819c0 <UDD_FifoByteCount+0x10>)
   819b2:	304c      	adds	r0, #76	; 0x4c
   819b4:	f853 0020 	ldr.w	r0, [r3, r0, lsl #2]
   819b8:	f3c0 500a 	ubfx	r0, r0, #20, #11
   819bc:	4770      	bx	lr
   819be:	bf00      	nop
   819c0:	400ac000 	andmi	ip, sl, r0

000819c4 <UDD_ReleaseRX>:
   819c4:	0083      	lsls	r3, r0, #2
   819c6:	f103 4380 	add.w	r3, r3, #1073741824	; 0x40000000
   819ca:	f503 232c 	add.w	r3, r3, #704512	; 0xac000
   819ce:	2202      	movs	r2, #2
   819d0:	f8c3 2160 	str.w	r2, [r3, #352]	; 0x160
   819d4:	f44f 4280 	mov.w	r2, #16384	; 0x4000
   819d8:	f8c3 2220 	str.w	r2, [r3, #544]	; 0x220
   819dc:	4b02      	ldr	r3, [pc, #8]	; (819e8 <UDD_ReleaseRX+0x24>)
   819de:	2200      	movs	r2, #0
   819e0:	f843 2020 	str.w	r2, [r3, r0, lsl #2]
   819e4:	4770      	bx	lr
   819e6:	bf00      	nop
   819e8:	20071074 	andcs	r1, r7, r4, ror r0

000819ec <UDD_ReleaseTX>:
   819ec:	0083      	lsls	r3, r0, #2
   819ee:	f103 4380 	add.w	r3, r3, #1073741824	; 0x40000000
   819f2:	f503 232c 	add.w	r3, r3, #704512	; 0xac000
   819f6:	2201      	movs	r2, #1
   819f8:	f8c3 2160 	str.w	r2, [r3, #352]	; 0x160
   819fc:	f44f 4280 	mov.w	r2, #16384	; 0x4000
   81a00:	f8c3 2220 	str.w	r2, [r3, #544]	; 0x220
   81a04:	4b02      	ldr	r3, [pc, #8]	; (81a10 <UDD_ReleaseTX+0x24>)
   81a06:	2200      	movs	r2, #0
   81a08:	f843 2020 	str.w	r2, [r3, r0, lsl #2]
   81a0c:	4770      	bx	lr
   81a0e:	bf00      	nop
   81a10:	2007109c 	mulcs	r7, ip, r0

00081a14 <UDD_SetAddress>:
   81a14:	4b06      	ldr	r3, [pc, #24]	; (81a30 <UDD_SetAddress+0x1c>)
   81a16:	f000 007f 	and.w	r0, r0, #127	; 0x7f
   81a1a:	681a      	ldr	r2, [r3, #0]
   81a1c:	f022 027f 	bic.w	r2, r2, #127	; 0x7f
   81a20:	4302      	orrs	r2, r0
   81a22:	601a      	str	r2, [r3, #0]
   81a24:	681a      	ldr	r2, [r3, #0]
   81a26:	f042 0280 	orr.w	r2, r2, #128	; 0x80
   81a2a:	601a      	str	r2, [r3, #0]
   81a2c:	4770      	bx	lr
   81a2e:	bf00      	nop
   81a30:	400ac000 	andmi	ip, sl, r0

00081a34 <__libc_init_array>:
   81a34:	b570      	push	{r4, r5, r6, lr}
   81a36:	4e0f      	ldr	r6, [pc, #60]	; (81a74 <__libc_init_array+0x40>)
   81a38:	4d0f      	ldr	r5, [pc, #60]	; (81a78 <__libc_init_array+0x44>)
   81a3a:	1b76      	subs	r6, r6, r5
   81a3c:	10b6      	asrs	r6, r6, #2
   81a3e:	d007      	beq.n	81a50 <__libc_init_array+0x1c>
   81a40:	3d04      	subs	r5, #4
   81a42:	2400      	movs	r4, #0
   81a44:	3401      	adds	r4, #1
   81a46:	f855 3f04 	ldr.w	r3, [r5, #4]!
   81a4a:	4798      	blx	r3
   81a4c:	42a6      	cmp	r6, r4
   81a4e:	d1f9      	bne.n	81a44 <__libc_init_array+0x10>
   81a50:	4e0a      	ldr	r6, [pc, #40]	; (81a7c <__libc_init_array+0x48>)
   81a52:	4d0b      	ldr	r5, [pc, #44]	; (81a80 <__libc_init_array+0x4c>)
   81a54:	f003 fd7c 	bl	85550 <_init>
   81a58:	1b76      	subs	r6, r6, r5
   81a5a:	10b6      	asrs	r6, r6, #2
   81a5c:	d008      	beq.n	81a70 <__libc_init_array+0x3c>
   81a5e:	3d04      	subs	r5, #4
   81a60:	2400      	movs	r4, #0
   81a62:	3401      	adds	r4, #1
   81a64:	f855 3f04 	ldr.w	r3, [r5, #4]!
   81a68:	4798      	blx	r3
   81a6a:	42a6      	cmp	r6, r4
   81a6c:	d1f9      	bne.n	81a62 <__libc_init_array+0x2e>
   81a6e:	bd70      	pop	{r4, r5, r6, pc}
   81a70:	bd70      	pop	{r4, r5, r6, pc}
   81a72:	bf00      	nop
   81a74:	0008555c 	andeq	r5, r8, ip, asr r5
   81a78:	0008555c 	andeq	r5, r8, ip, asr r5
   81a7c:	00085570 	andeq	r5, r8, r0, ror r5
   81a80:	0008555c 	andeq	r5, r8, ip, asr r5

00081a84 <iprintf>:
   81a84:	b40f      	push	{r0, r1, r2, r3}
   81a86:	b510      	push	{r4, lr}
   81a88:	4b07      	ldr	r3, [pc, #28]	; (81aa8 <iprintf+0x24>)
   81a8a:	b082      	sub	sp, #8
   81a8c:	ac04      	add	r4, sp, #16
   81a8e:	f854 2b04 	ldr.w	r2, [r4], #4
   81a92:	6818      	ldr	r0, [r3, #0]
   81a94:	4623      	mov	r3, r4
   81a96:	6881      	ldr	r1, [r0, #8]
   81a98:	9401      	str	r4, [sp, #4]
   81a9a:	f000 f8c5 	bl	81c28 <_vfiprintf_r>
   81a9e:	b002      	add	sp, #8
   81aa0:	e8bd 4010 	ldmia.w	sp!, {r4, lr}
   81aa4:	b004      	add	sp, #16
   81aa6:	4770      	bx	lr
   81aa8:	20070498 	mulcs	r7, r8, r4

00081aac <memset>:
   81aac:	b4f0      	push	{r4, r5, r6, r7}
   81aae:	0784      	lsls	r4, r0, #30
   81ab0:	d043      	beq.n	81b3a <memset+0x8e>
   81ab2:	1e54      	subs	r4, r2, #1
   81ab4:	2a00      	cmp	r2, #0
   81ab6:	d03e      	beq.n	81b36 <memset+0x8a>
   81ab8:	b2cd      	uxtb	r5, r1
   81aba:	4603      	mov	r3, r0
   81abc:	e003      	b.n	81ac6 <memset+0x1a>
   81abe:	1e62      	subs	r2, r4, #1
   81ac0:	2c00      	cmp	r4, #0
   81ac2:	d038      	beq.n	81b36 <memset+0x8a>
   81ac4:	4614      	mov	r4, r2
   81ac6:	f803 5b01 	strb.w	r5, [r3], #1
   81aca:	079a      	lsls	r2, r3, #30
   81acc:	d1f7      	bne.n	81abe <memset+0x12>
   81ace:	2c03      	cmp	r4, #3
   81ad0:	d92a      	bls.n	81b28 <memset+0x7c>
   81ad2:	b2cd      	uxtb	r5, r1
   81ad4:	ea45 2505 	orr.w	r5, r5, r5, lsl #8
   81ad8:	2c0f      	cmp	r4, #15
   81ada:	ea45 4505 	orr.w	r5, r5, r5, lsl #16
   81ade:	d915      	bls.n	81b0c <memset+0x60>
   81ae0:	f1a4 0710 	sub.w	r7, r4, #16
   81ae4:	093f      	lsrs	r7, r7, #4
   81ae6:	f103 0610 	add.w	r6, r3, #16
   81aea:	eb06 1607 	add.w	r6, r6, r7, lsl #4
   81aee:	461a      	mov	r2, r3
   81af0:	6015      	str	r5, [r2, #0]
   81af2:	6055      	str	r5, [r2, #4]
   81af4:	6095      	str	r5, [r2, #8]
   81af6:	60d5      	str	r5, [r2, #12]
   81af8:	3210      	adds	r2, #16
   81afa:	42b2      	cmp	r2, r6
   81afc:	d1f8      	bne.n	81af0 <memset+0x44>
   81afe:	f004 040f 	and.w	r4, r4, #15
   81b02:	3701      	adds	r7, #1
   81b04:	2c03      	cmp	r4, #3
   81b06:	eb03 1307 	add.w	r3, r3, r7, lsl #4
   81b0a:	d90d      	bls.n	81b28 <memset+0x7c>
   81b0c:	461e      	mov	r6, r3
   81b0e:	4622      	mov	r2, r4
   81b10:	3a04      	subs	r2, #4
   81b12:	2a03      	cmp	r2, #3
   81b14:	f846 5b04 	str.w	r5, [r6], #4
   81b18:	d8fa      	bhi.n	81b10 <memset+0x64>
   81b1a:	1f22      	subs	r2, r4, #4
   81b1c:	f022 0203 	bic.w	r2, r2, #3
   81b20:	3204      	adds	r2, #4
   81b22:	4413      	add	r3, r2
   81b24:	f004 0403 	and.w	r4, r4, #3
   81b28:	b12c      	cbz	r4, 81b36 <memset+0x8a>
   81b2a:	b2c9      	uxtb	r1, r1
   81b2c:	441c      	add	r4, r3
   81b2e:	f803 1b01 	strb.w	r1, [r3], #1
   81b32:	42a3      	cmp	r3, r4
   81b34:	d1fb      	bne.n	81b2e <memset+0x82>
   81b36:	bcf0      	pop	{r4, r5, r6, r7}
   81b38:	4770      	bx	lr
   81b3a:	4614      	mov	r4, r2
   81b3c:	4603      	mov	r3, r0
   81b3e:	e7c6      	b.n	81ace <memset+0x22>

00081b40 <strlen>:
   81b40:	f020 0103 	bic.w	r1, r0, #3
   81b44:	f010 0003 	ands.w	r0, r0, #3
   81b48:	f1c0 0000 	rsb	r0, r0, #0
   81b4c:	f851 3b04 	ldr.w	r3, [r1], #4
   81b50:	f100 0c04 	add.w	ip, r0, #4
   81b54:	ea4f 0ccc 	mov.w	ip, ip, lsl #3
   81b58:	f06f 0200 	mvn.w	r2, #0
   81b5c:	bf1c      	itt	ne
   81b5e:	fa22 f20c 	lsrne.w	r2, r2, ip
   81b62:	4313      	orrne	r3, r2
   81b64:	f04f 0c01 	mov.w	ip, #1
   81b68:	ea4c 2c0c 	orr.w	ip, ip, ip, lsl #8
   81b6c:	ea4c 4c0c 	orr.w	ip, ip, ip, lsl #16
   81b70:	eba3 020c 	sub.w	r2, r3, ip
   81b74:	ea22 0203 	bic.w	r2, r2, r3
   81b78:	ea12 12cc 	ands.w	r2, r2, ip, lsl #7
   81b7c:	bf04      	itt	eq
   81b7e:	f851 3b04 	ldreq.w	r3, [r1], #4
   81b82:	3004      	addeq	r0, #4
   81b84:	d0f4      	beq.n	81b70 <strlen+0x30>
   81b86:	f013 0fff 	tst.w	r3, #255	; 0xff
   81b8a:	bf1f      	itttt	ne
   81b8c:	3001      	addne	r0, #1
   81b8e:	f413 4f7f 	tstne.w	r3, #65280	; 0xff00
   81b92:	3001      	addne	r0, #1
   81b94:	f413 0f7f 	tstne.w	r3, #16711680	; 0xff0000
   81b98:	bf18      	it	ne
   81b9a:	3001      	addne	r0, #1
   81b9c:	4770      	bx	lr
   81b9e:	bf00      	nop

00081ba0 <kill>:
   81ba0:	4b02      	ldr	r3, [pc, #8]	; (81bac <kill+0xc>)
   81ba2:	460a      	mov	r2, r1
   81ba4:	4601      	mov	r1, r0
   81ba6:	6818      	ldr	r0, [r3, #0]
   81ba8:	f002 b9c8 	b.w	83f3c <_kill_r>
   81bac:	20070498 	mulcs	r7, r8, r4

00081bb0 <__sprint_r.part.0>:
   81bb0:	6e4b      	ldr	r3, [r1, #100]	; 0x64
   81bb2:	e92d 47f0 	stmdb	sp!, {r4, r5, r6, r7, r8, r9, sl, lr}
   81bb6:	049c      	lsls	r4, r3, #18
   81bb8:	460e      	mov	r6, r1
   81bba:	4680      	mov	r8, r0
   81bbc:	4691      	mov	r9, r2
   81bbe:	d52a      	bpl.n	81c16 <__sprint_r.part.0+0x66>
   81bc0:	6893      	ldr	r3, [r2, #8]
   81bc2:	6812      	ldr	r2, [r2, #0]
   81bc4:	f102 0a08 	add.w	sl, r2, #8
   81bc8:	b31b      	cbz	r3, 81c12 <__sprint_r.part.0+0x62>
   81bca:	e91a 00a0 	ldmdb	sl, {r5, r7}
   81bce:	08bf      	lsrs	r7, r7, #2
   81bd0:	d017      	beq.n	81c02 <__sprint_r.part.0+0x52>
   81bd2:	3d04      	subs	r5, #4
   81bd4:	2400      	movs	r4, #0
   81bd6:	e001      	b.n	81bdc <__sprint_r.part.0+0x2c>
   81bd8:	42a7      	cmp	r7, r4
   81bda:	d010      	beq.n	81bfe <__sprint_r.part.0+0x4e>
   81bdc:	4640      	mov	r0, r8
   81bde:	f855 1f04 	ldr.w	r1, [r5, #4]!
   81be2:	4632      	mov	r2, r6
   81be4:	f001 f850 	bl	82c88 <_fputwc_r>
   81be8:	1c43      	adds	r3, r0, #1
   81bea:	f104 0401 	add.w	r4, r4, #1
   81bee:	d1f3      	bne.n	81bd8 <__sprint_r.part.0+0x28>
   81bf0:	2300      	movs	r3, #0
   81bf2:	f8c9 3008 	str.w	r3, [r9, #8]
   81bf6:	f8c9 3004 	str.w	r3, [r9, #4]
   81bfa:	e8bd 87f0 	ldmia.w	sp!, {r4, r5, r6, r7, r8, r9, sl, pc}
   81bfe:	f8d9 3008 	ldr.w	r3, [r9, #8]
   81c02:	eba3 0387 	sub.w	r3, r3, r7, lsl #2
   81c06:	f8c9 3008 	str.w	r3, [r9, #8]
   81c0a:	f10a 0a08 	add.w	sl, sl, #8
   81c0e:	2b00      	cmp	r3, #0
   81c10:	d1db      	bne.n	81bca <__sprint_r.part.0+0x1a>
   81c12:	2000      	movs	r0, #0
   81c14:	e7ec      	b.n	81bf0 <__sprint_r.part.0+0x40>
   81c16:	f001 f9b1 	bl	82f7c <__sfvwrite_r>
   81c1a:	2300      	movs	r3, #0
   81c1c:	f8c9 3008 	str.w	r3, [r9, #8]
   81c20:	f8c9 3004 	str.w	r3, [r9, #4]
   81c24:	e8bd 87f0 	ldmia.w	sp!, {r4, r5, r6, r7, r8, r9, sl, pc}

00081c28 <_vfiprintf_r>:
   81c28:	e92d 4ff0 	stmdb	sp!, {r4, r5, r6, r7, r8, r9, sl, fp, lr}
   81c2c:	b0b1      	sub	sp, #196	; 0xc4
   81c2e:	461c      	mov	r4, r3
   81c30:	9102      	str	r1, [sp, #8]
   81c32:	4690      	mov	r8, r2
   81c34:	9308      	str	r3, [sp, #32]
   81c36:	9006      	str	r0, [sp, #24]
   81c38:	b118      	cbz	r0, 81c42 <_vfiprintf_r+0x1a>
   81c3a:	6b83      	ldr	r3, [r0, #56]	; 0x38
   81c3c:	2b00      	cmp	r3, #0
   81c3e:	f000 80e8 	beq.w	81e12 <_vfiprintf_r+0x1ea>
   81c42:	9d02      	ldr	r5, [sp, #8]
   81c44:	89ab      	ldrh	r3, [r5, #12]
   81c46:	b29a      	uxth	r2, r3
   81c48:	0490      	lsls	r0, r2, #18
   81c4a:	d407      	bmi.n	81c5c <_vfiprintf_r+0x34>
   81c4c:	6e6a      	ldr	r2, [r5, #100]	; 0x64
   81c4e:	f443 5300 	orr.w	r3, r3, #8192	; 0x2000
   81c52:	f422 5100 	bic.w	r1, r2, #8192	; 0x2000
   81c56:	81ab      	strh	r3, [r5, #12]
   81c58:	b29a      	uxth	r2, r3
   81c5a:	6669      	str	r1, [r5, #100]	; 0x64
   81c5c:	0711      	lsls	r1, r2, #28
   81c5e:	f140 80b7 	bpl.w	81dd0 <_vfiprintf_r+0x1a8>
   81c62:	f8dd b008 	ldr.w	fp, [sp, #8]
   81c66:	f8db 3010 	ldr.w	r3, [fp, #16]
   81c6a:	2b00      	cmp	r3, #0
   81c6c:	f000 80b0 	beq.w	81dd0 <_vfiprintf_r+0x1a8>
   81c70:	f002 021a 	and.w	r2, r2, #26
   81c74:	2a0a      	cmp	r2, #10
   81c76:	f000 80b7 	beq.w	81de8 <_vfiprintf_r+0x1c0>
   81c7a:	2300      	movs	r3, #0
   81c7c:	f10d 0980 	add.w	r9, sp, #128	; 0x80
   81c80:	930a      	str	r3, [sp, #40]	; 0x28
   81c82:	9315      	str	r3, [sp, #84]	; 0x54
   81c84:	9314      	str	r3, [sp, #80]	; 0x50
   81c86:	9309      	str	r3, [sp, #36]	; 0x24
   81c88:	f8cd 904c 	str.w	r9, [sp, #76]	; 0x4c
   81c8c:	464e      	mov	r6, r9
   81c8e:	f898 3000 	ldrb.w	r3, [r8]
   81c92:	2b00      	cmp	r3, #0
   81c94:	f000 84c8 	beq.w	82628 <_vfiprintf_r+0xa00>
   81c98:	2b25      	cmp	r3, #37	; 0x25
   81c9a:	f000 84c5 	beq.w	82628 <_vfiprintf_r+0xa00>
   81c9e:	f108 0201 	add.w	r2, r8, #1
   81ca2:	e001      	b.n	81ca8 <_vfiprintf_r+0x80>
   81ca4:	2b25      	cmp	r3, #37	; 0x25
   81ca6:	d004      	beq.n	81cb2 <_vfiprintf_r+0x8a>
   81ca8:	7813      	ldrb	r3, [r2, #0]
   81caa:	4614      	mov	r4, r2
   81cac:	3201      	adds	r2, #1
   81cae:	2b00      	cmp	r3, #0
   81cb0:	d1f8      	bne.n	81ca4 <_vfiprintf_r+0x7c>
   81cb2:	ebc8 0504 	rsb	r5, r8, r4
   81cb6:	b195      	cbz	r5, 81cde <_vfiprintf_r+0xb6>
   81cb8:	9b14      	ldr	r3, [sp, #80]	; 0x50
   81cba:	9a15      	ldr	r2, [sp, #84]	; 0x54
   81cbc:	3301      	adds	r3, #1
   81cbe:	442a      	add	r2, r5
   81cc0:	2b07      	cmp	r3, #7
   81cc2:	f8c6 8000 	str.w	r8, [r6]
   81cc6:	6075      	str	r5, [r6, #4]
   81cc8:	9215      	str	r2, [sp, #84]	; 0x54
   81cca:	9314      	str	r3, [sp, #80]	; 0x50
   81ccc:	dd7b      	ble.n	81dc6 <_vfiprintf_r+0x19e>
   81cce:	2a00      	cmp	r2, #0
   81cd0:	f040 84d5 	bne.w	8267e <_vfiprintf_r+0xa56>
   81cd4:	9809      	ldr	r0, [sp, #36]	; 0x24
   81cd6:	9214      	str	r2, [sp, #80]	; 0x50
   81cd8:	4428      	add	r0, r5
   81cda:	464e      	mov	r6, r9
   81cdc:	9009      	str	r0, [sp, #36]	; 0x24
   81cde:	7823      	ldrb	r3, [r4, #0]
   81ce0:	2b00      	cmp	r3, #0
   81ce2:	f000 83ed 	beq.w	824c0 <_vfiprintf_r+0x898>
   81ce6:	2100      	movs	r1, #0
   81ce8:	f04f 0200 	mov.w	r2, #0
   81cec:	f04f 3cff 	mov.w	ip, #4294967295	; 0xffffffff
   81cf0:	7863      	ldrb	r3, [r4, #1]
   81cf2:	f88d 2047 	strb.w	r2, [sp, #71]	; 0x47
   81cf6:	9104      	str	r1, [sp, #16]
   81cf8:	468a      	mov	sl, r1
   81cfa:	f104 0801 	add.w	r8, r4, #1
   81cfe:	4608      	mov	r0, r1
   81d00:	4665      	mov	r5, ip
   81d02:	f108 0801 	add.w	r8, r8, #1
   81d06:	f1a3 0220 	sub.w	r2, r3, #32
   81d0a:	2a58      	cmp	r2, #88	; 0x58
   81d0c:	f200 82d9 	bhi.w	822c2 <_vfiprintf_r+0x69a>
   81d10:	e8df f012 	tbh	[pc, r2, lsl #1]
   81d14:	02d702cb 	sbcseq	r0, r7, #-1342177268	; 0xb000000c
   81d18:	02d202d7 	sbcseq	r0, r2, #1879048205	; 0x7000000d
   81d1c:	02d702d7 	sbcseq	r0, r7, #1879048205	; 0x7000000d
   81d20:	02d702d7 	sbcseq	r0, r7, #1879048205	; 0x7000000d
   81d24:	02d702d7 	sbcseq	r0, r7, #1879048205	; 0x7000000d
   81d28:	028f0282 	addeq	r0, pc, #536870920	; 0x20000008
   81d2c:	008402d7 	ldrdeq	r0, [r4], r7
   81d30:	02d70293 	sbcseq	r0, r7, #805306377	; 0x30000009
   81d34:	0196012b 	orrseq	r0, r6, fp, lsr #2
   81d38:	01960196 			; <UNDEFINED> instruction: 0x01960196
   81d3c:	01960196 			; <UNDEFINED> instruction: 0x01960196
   81d40:	01960196 			; <UNDEFINED> instruction: 0x01960196
   81d44:	01960196 			; <UNDEFINED> instruction: 0x01960196
   81d48:	02d702d7 	sbcseq	r0, r7, #1879048205	; 0x7000000d
   81d4c:	02d702d7 	sbcseq	r0, r7, #1879048205	; 0x7000000d
   81d50:	02d702d7 	sbcseq	r0, r7, #1879048205	; 0x7000000d
   81d54:	02d702d7 	sbcseq	r0, r7, #1879048205	; 0x7000000d
   81d58:	02d702d7 	sbcseq	r0, r7, #1879048205	; 0x7000000d
   81d5c:	02d70130 	sbcseq	r0, r7, #48, 2
   81d60:	02d702d7 	sbcseq	r0, r7, #1879048205	; 0x7000000d
   81d64:	02d702d7 	sbcseq	r0, r7, #1879048205	; 0x7000000d
   81d68:	02d702d7 	sbcseq	r0, r7, #1879048205	; 0x7000000d
   81d6c:	02d702d7 	sbcseq	r0, r7, #1879048205	; 0x7000000d
   81d70:	017b02d7 	ldrsbeq	r0, [fp, #-39]!	; 0xffffffd9
   81d74:	02d702d7 	sbcseq	r0, r7, #1879048205	; 0x7000000d
   81d78:	02d702d7 	sbcseq	r0, r7, #1879048205	; 0x7000000d
   81d7c:	01a402d7 	ldrdeq	r0, [r4, r7]!
   81d80:	02d702d7 	sbcseq	r0, r7, #1879048205	; 0x7000000d
   81d84:	02d701bf 	sbcseq	r0, r7, #-1073741777	; 0xc000002f
   81d88:	02d702d7 	sbcseq	r0, r7, #1879048205	; 0x7000000d
   81d8c:	02d702d7 	sbcseq	r0, r7, #1879048205	; 0x7000000d
   81d90:	02d702d7 	sbcseq	r0, r7, #1879048205	; 0x7000000d
   81d94:	02d702d7 	sbcseq	r0, r7, #1879048205	; 0x7000000d
   81d98:	01e402d7 	ldrdeq	r0, [r4, #39]!	; 0x27
   81d9c:	02d701fa 	sbcseq	r0, r7, #-2147483586	; 0x8000003e
   81da0:	02d702d7 	sbcseq	r0, r7, #1879048205	; 0x7000000d
   81da4:	01fa0216 	mvnseq	r0, r6, lsl r2
   81da8:	02d702d7 	sbcseq	r0, r7, #1879048205	; 0x7000000d
   81dac:	02d7021b 	sbcseq	r0, r7, #-1342177279	; 0xb0000001
   81db0:	00890228 	addeq	r0, r9, r8, lsr #4
   81db4:	027d0266 	rsbseq	r0, sp, #1610612742	; 0x60000006
   81db8:	023a02d7 	eorseq	r0, sl, #1879048205	; 0x7000000d
   81dbc:	011902d7 			; <UNDEFINED> instruction: 0x011902d7
   81dc0:	02d702d7 	sbcseq	r0, r7, #1879048205	; 0x7000000d
   81dc4:	360802af 	strcc	r0, [r8], -pc, lsr #5
   81dc8:	9809      	ldr	r0, [sp, #36]	; 0x24
   81dca:	4428      	add	r0, r5
   81dcc:	9009      	str	r0, [sp, #36]	; 0x24
   81dce:	e786      	b.n	81cde <_vfiprintf_r+0xb6>
   81dd0:	9806      	ldr	r0, [sp, #24]
   81dd2:	9902      	ldr	r1, [sp, #8]
   81dd4:	f000 fd90 	bl	828f8 <__swsetup_r>
   81dd8:	b9b0      	cbnz	r0, 81e08 <_vfiprintf_r+0x1e0>
   81dda:	9d02      	ldr	r5, [sp, #8]
   81ddc:	89aa      	ldrh	r2, [r5, #12]
   81dde:	f002 021a 	and.w	r2, r2, #26
   81de2:	2a0a      	cmp	r2, #10
   81de4:	f47f af49 	bne.w	81c7a <_vfiprintf_r+0x52>
   81de8:	f8dd b008 	ldr.w	fp, [sp, #8]
   81dec:	f9bb 300e 	ldrsh.w	r3, [fp, #14]
   81df0:	2b00      	cmp	r3, #0
   81df2:	f6ff af42 	blt.w	81c7a <_vfiprintf_r+0x52>
   81df6:	9806      	ldr	r0, [sp, #24]
   81df8:	4659      	mov	r1, fp
   81dfa:	4642      	mov	r2, r8
   81dfc:	4623      	mov	r3, r4
   81dfe:	f000 fd3d 	bl	8287c <__sbprintf>
   81e02:	b031      	add	sp, #196	; 0xc4
   81e04:	e8bd 8ff0 	ldmia.w	sp!, {r4, r5, r6, r7, r8, r9, sl, fp, pc}
   81e08:	f04f 30ff 	mov.w	r0, #4294967295	; 0xffffffff
   81e0c:	b031      	add	sp, #196	; 0xc4
   81e0e:	e8bd 8ff0 	ldmia.w	sp!, {r4, r5, r6, r7, r8, r9, sl, fp, pc}
   81e12:	f000 fea3 	bl	82b5c <__sinit>
   81e16:	e714      	b.n	81c42 <_vfiprintf_r+0x1a>
   81e18:	4240      	negs	r0, r0
   81e1a:	9308      	str	r3, [sp, #32]
   81e1c:	f04a 0a04 	orr.w	sl, sl, #4
   81e20:	f898 3000 	ldrb.w	r3, [r8]
   81e24:	e76d      	b.n	81d02 <_vfiprintf_r+0xda>
   81e26:	f01a 0320 	ands.w	r3, sl, #32
   81e2a:	9004      	str	r0, [sp, #16]
   81e2c:	46ac      	mov	ip, r5
   81e2e:	f000 80f4 	beq.w	8201a <_vfiprintf_r+0x3f2>
   81e32:	f8dd b020 	ldr.w	fp, [sp, #32]
   81e36:	f10b 0307 	add.w	r3, fp, #7
   81e3a:	f023 0307 	bic.w	r3, r3, #7
   81e3e:	f103 0408 	add.w	r4, r3, #8
   81e42:	9408      	str	r4, [sp, #32]
   81e44:	e9d3 4500 	ldrd	r4, r5, [r3]
   81e48:	2300      	movs	r3, #0
   81e4a:	f04f 0000 	mov.w	r0, #0
   81e4e:	2100      	movs	r1, #0
   81e50:	f88d 0047 	strb.w	r0, [sp, #71]	; 0x47
   81e54:	f8cd c014 	str.w	ip, [sp, #20]
   81e58:	9107      	str	r1, [sp, #28]
   81e5a:	f1bc 0f00 	cmp.w	ip, #0
   81e5e:	bfa8      	it	ge
   81e60:	f02a 0a80 	bicge.w	sl, sl, #128	; 0x80
   81e64:	ea54 0205 	orrs.w	r2, r4, r5
   81e68:	f040 80ad 	bne.w	81fc6 <_vfiprintf_r+0x39e>
   81e6c:	f1bc 0f00 	cmp.w	ip, #0
   81e70:	f040 80a9 	bne.w	81fc6 <_vfiprintf_r+0x39e>
   81e74:	2b00      	cmp	r3, #0
   81e76:	f040 83c0 	bne.w	825fa <_vfiprintf_r+0x9d2>
   81e7a:	f01a 0f01 	tst.w	sl, #1
   81e7e:	f000 83bc 	beq.w	825fa <_vfiprintf_r+0x9d2>
   81e82:	2330      	movs	r3, #48	; 0x30
   81e84:	af30      	add	r7, sp, #192	; 0xc0
   81e86:	f807 3d41 	strb.w	r3, [r7, #-65]!
   81e8a:	ebc7 0409 	rsb	r4, r7, r9
   81e8e:	9405      	str	r4, [sp, #20]
   81e90:	f8dd b014 	ldr.w	fp, [sp, #20]
   81e94:	9c07      	ldr	r4, [sp, #28]
   81e96:	45e3      	cmp	fp, ip
   81e98:	bfb8      	it	lt
   81e9a:	46e3      	movlt	fp, ip
   81e9c:	f8cd b00c 	str.w	fp, [sp, #12]
   81ea0:	b11c      	cbz	r4, 81eaa <_vfiprintf_r+0x282>
   81ea2:	f10b 0b01 	add.w	fp, fp, #1
   81ea6:	f8cd b00c 	str.w	fp, [sp, #12]
   81eaa:	f01a 0502 	ands.w	r5, sl, #2
   81eae:	9507      	str	r5, [sp, #28]
   81eb0:	d005      	beq.n	81ebe <_vfiprintf_r+0x296>
   81eb2:	f8dd b00c 	ldr.w	fp, [sp, #12]
   81eb6:	f10b 0b02 	add.w	fp, fp, #2
   81eba:	f8cd b00c 	str.w	fp, [sp, #12]
   81ebe:	f01a 0384 	ands.w	r3, sl, #132	; 0x84
   81ec2:	930b      	str	r3, [sp, #44]	; 0x2c
   81ec4:	f040 821b 	bne.w	822fe <_vfiprintf_r+0x6d6>
   81ec8:	9d04      	ldr	r5, [sp, #16]
   81eca:	f8dd b00c 	ldr.w	fp, [sp, #12]
   81ece:	ebcb 0405 	rsb	r4, fp, r5
   81ed2:	2c00      	cmp	r4, #0
   81ed4:	f340 8213 	ble.w	822fe <_vfiprintf_r+0x6d6>
   81ed8:	2c10      	cmp	r4, #16
   81eda:	f340 8489 	ble.w	827f0 <_vfiprintf_r+0xbc8>
   81ede:	4dbe      	ldr	r5, [pc, #760]	; (821d8 <_vfiprintf_r+0x5b0>)
   81ee0:	9a15      	ldr	r2, [sp, #84]	; 0x54
   81ee2:	462b      	mov	r3, r5
   81ee4:	9814      	ldr	r0, [sp, #80]	; 0x50
   81ee6:	4625      	mov	r5, r4
   81ee8:	f04f 0b10 	mov.w	fp, #16
   81eec:	4664      	mov	r4, ip
   81eee:	46b4      	mov	ip, r6
   81ef0:	461e      	mov	r6, r3
   81ef2:	e006      	b.n	81f02 <_vfiprintf_r+0x2da>
   81ef4:	1c83      	adds	r3, r0, #2
   81ef6:	f10c 0c08 	add.w	ip, ip, #8
   81efa:	4608      	mov	r0, r1
   81efc:	3d10      	subs	r5, #16
   81efe:	2d10      	cmp	r5, #16
   81f00:	dd11      	ble.n	81f26 <_vfiprintf_r+0x2fe>
   81f02:	1c41      	adds	r1, r0, #1
   81f04:	3210      	adds	r2, #16
   81f06:	2907      	cmp	r1, #7
   81f08:	9215      	str	r2, [sp, #84]	; 0x54
   81f0a:	e88c 0840 	stmia.w	ip, {r6, fp}
   81f0e:	9114      	str	r1, [sp, #80]	; 0x50
   81f10:	ddf0      	ble.n	81ef4 <_vfiprintf_r+0x2cc>
   81f12:	2a00      	cmp	r2, #0
   81f14:	f040 81e6 	bne.w	822e4 <_vfiprintf_r+0x6bc>
   81f18:	3d10      	subs	r5, #16
   81f1a:	2d10      	cmp	r5, #16
   81f1c:	f04f 0301 	mov.w	r3, #1
   81f20:	4610      	mov	r0, r2
   81f22:	46cc      	mov	ip, r9
   81f24:	dced      	bgt.n	81f02 <_vfiprintf_r+0x2da>
   81f26:	4631      	mov	r1, r6
   81f28:	4666      	mov	r6, ip
   81f2a:	46a4      	mov	ip, r4
   81f2c:	462c      	mov	r4, r5
   81f2e:	460d      	mov	r5, r1
   81f30:	4422      	add	r2, r4
   81f32:	2b07      	cmp	r3, #7
   81f34:	9215      	str	r2, [sp, #84]	; 0x54
   81f36:	6035      	str	r5, [r6, #0]
   81f38:	6074      	str	r4, [r6, #4]
   81f3a:	9314      	str	r3, [sp, #80]	; 0x50
   81f3c:	f300 836d 	bgt.w	8261a <_vfiprintf_r+0x9f2>
   81f40:	3608      	adds	r6, #8
   81f42:	1c59      	adds	r1, r3, #1
   81f44:	e1de      	b.n	82304 <_vfiprintf_r+0x6dc>
   81f46:	f01a 0f20 	tst.w	sl, #32
   81f4a:	9004      	str	r0, [sp, #16]
   81f4c:	46ac      	mov	ip, r5
   81f4e:	f000 808d 	beq.w	8206c <_vfiprintf_r+0x444>
   81f52:	9d08      	ldr	r5, [sp, #32]
   81f54:	1deb      	adds	r3, r5, #7
   81f56:	f023 0307 	bic.w	r3, r3, #7
   81f5a:	f103 0b08 	add.w	fp, r3, #8
   81f5e:	e9d3 4500 	ldrd	r4, r5, [r3]
   81f62:	f8cd b020 	str.w	fp, [sp, #32]
   81f66:	2301      	movs	r3, #1
   81f68:	e76f      	b.n	81e4a <_vfiprintf_r+0x222>
   81f6a:	f04a 0a80 	orr.w	sl, sl, #128	; 0x80
   81f6e:	f898 3000 	ldrb.w	r3, [r8]
   81f72:	e6c6      	b.n	81d02 <_vfiprintf_r+0xda>
   81f74:	f04a 0a10 	orr.w	sl, sl, #16
   81f78:	f01a 0f20 	tst.w	sl, #32
   81f7c:	9004      	str	r0, [sp, #16]
   81f7e:	46ac      	mov	ip, r5
   81f80:	f88d 1047 	strb.w	r1, [sp, #71]	; 0x47
   81f84:	f000 80c8 	beq.w	82118 <_vfiprintf_r+0x4f0>
   81f88:	9c08      	ldr	r4, [sp, #32]
   81f8a:	1de1      	adds	r1, r4, #7
   81f8c:	f021 0107 	bic.w	r1, r1, #7
   81f90:	e9d1 2300 	ldrd	r2, r3, [r1]
   81f94:	3108      	adds	r1, #8
   81f96:	9108      	str	r1, [sp, #32]
   81f98:	4614      	mov	r4, r2
   81f9a:	461d      	mov	r5, r3
   81f9c:	2a00      	cmp	r2, #0
   81f9e:	f173 0b00 	sbcs.w	fp, r3, #0
   81fa2:	f2c0 83ce 	blt.w	82742 <_vfiprintf_r+0xb1a>
   81fa6:	f1bc 0f00 	cmp.w	ip, #0
   81faa:	f89d 0047 	ldrb.w	r0, [sp, #71]	; 0x47
   81fae:	bfa8      	it	ge
   81fb0:	f02a 0a80 	bicge.w	sl, sl, #128	; 0x80
   81fb4:	ea54 0205 	orrs.w	r2, r4, r5
   81fb8:	9007      	str	r0, [sp, #28]
   81fba:	f8cd c014 	str.w	ip, [sp, #20]
   81fbe:	f04f 0301 	mov.w	r3, #1
   81fc2:	f43f af53 	beq.w	81e6c <_vfiprintf_r+0x244>
   81fc6:	2b01      	cmp	r3, #1
   81fc8:	f000 8319 	beq.w	825fe <_vfiprintf_r+0x9d6>
   81fcc:	2b02      	cmp	r3, #2
   81fce:	f10d 037f 	add.w	r3, sp, #127	; 0x7f
   81fd2:	f040 824c 	bne.w	8246e <_vfiprintf_r+0x846>
   81fd6:	f8dd b028 	ldr.w	fp, [sp, #40]	; 0x28
   81fda:	4619      	mov	r1, r3
   81fdc:	f004 000f 	and.w	r0, r4, #15
   81fe0:	0922      	lsrs	r2, r4, #4
   81fe2:	f81b 0000 	ldrb.w	r0, [fp, r0]
   81fe6:	ea42 7205 	orr.w	r2, r2, r5, lsl #28
   81fea:	092b      	lsrs	r3, r5, #4
   81fec:	7008      	strb	r0, [r1, #0]
   81fee:	ea52 0003 	orrs.w	r0, r2, r3
   81ff2:	460f      	mov	r7, r1
   81ff4:	4614      	mov	r4, r2
   81ff6:	461d      	mov	r5, r3
   81ff8:	f101 31ff 	add.w	r1, r1, #4294967295	; 0xffffffff
   81ffc:	d1ee      	bne.n	81fdc <_vfiprintf_r+0x3b4>
   81ffe:	e9cd 230e 	strd	r2, r3, [sp, #56]	; 0x38
   82002:	ebc7 0309 	rsb	r3, r7, r9
   82006:	9305      	str	r3, [sp, #20]
   82008:	e742      	b.n	81e90 <_vfiprintf_r+0x268>
   8200a:	f04a 0a10 	orr.w	sl, sl, #16
   8200e:	f01a 0320 	ands.w	r3, sl, #32
   82012:	9004      	str	r0, [sp, #16]
   82014:	46ac      	mov	ip, r5
   82016:	f47f af0c 	bne.w	81e32 <_vfiprintf_r+0x20a>
   8201a:	f01a 0210 	ands.w	r2, sl, #16
   8201e:	f040 8311 	bne.w	82644 <_vfiprintf_r+0xa1c>
   82022:	f01a 0340 	ands.w	r3, sl, #64	; 0x40
   82026:	f000 830d 	beq.w	82644 <_vfiprintf_r+0xa1c>
   8202a:	f8dd b020 	ldr.w	fp, [sp, #32]
   8202e:	4613      	mov	r3, r2
   82030:	f8bb 4000 	ldrh.w	r4, [fp]
   82034:	f10b 0b04 	add.w	fp, fp, #4
   82038:	2500      	movs	r5, #0
   8203a:	f8cd b020 	str.w	fp, [sp, #32]
   8203e:	e704      	b.n	81e4a <_vfiprintf_r+0x222>
   82040:	f1a3 0230 	sub.w	r2, r3, #48	; 0x30
   82044:	2000      	movs	r0, #0
   82046:	f818 3b01 	ldrb.w	r3, [r8], #1
   8204a:	eb00 0080 	add.w	r0, r0, r0, lsl #2
   8204e:	eb02 0040 	add.w	r0, r2, r0, lsl #1
   82052:	f1a3 0230 	sub.w	r2, r3, #48	; 0x30
   82056:	2a09      	cmp	r2, #9
   82058:	d9f5      	bls.n	82046 <_vfiprintf_r+0x41e>
   8205a:	e654      	b.n	81d06 <_vfiprintf_r+0xde>
   8205c:	f04a 0a10 	orr.w	sl, sl, #16
   82060:	f01a 0f20 	tst.w	sl, #32
   82064:	9004      	str	r0, [sp, #16]
   82066:	46ac      	mov	ip, r5
   82068:	f47f af73 	bne.w	81f52 <_vfiprintf_r+0x32a>
   8206c:	f01a 0f10 	tst.w	sl, #16
   82070:	f040 82ef 	bne.w	82652 <_vfiprintf_r+0xa2a>
   82074:	f01a 0f40 	tst.w	sl, #64	; 0x40
   82078:	f000 82eb 	beq.w	82652 <_vfiprintf_r+0xa2a>
   8207c:	f8dd b020 	ldr.w	fp, [sp, #32]
   82080:	2500      	movs	r5, #0
   82082:	f8bb 4000 	ldrh.w	r4, [fp]
   82086:	f10b 0b04 	add.w	fp, fp, #4
   8208a:	2301      	movs	r3, #1
   8208c:	f8cd b020 	str.w	fp, [sp, #32]
   82090:	e6db      	b.n	81e4a <_vfiprintf_r+0x222>
   82092:	46ac      	mov	ip, r5
   82094:	4d51      	ldr	r5, [pc, #324]	; (821dc <_vfiprintf_r+0x5b4>)
   82096:	f01a 0f20 	tst.w	sl, #32
   8209a:	9004      	str	r0, [sp, #16]
   8209c:	f88d 1047 	strb.w	r1, [sp, #71]	; 0x47
   820a0:	950a      	str	r5, [sp, #40]	; 0x28
   820a2:	f000 80f0 	beq.w	82286 <_vfiprintf_r+0x65e>
   820a6:	9d08      	ldr	r5, [sp, #32]
   820a8:	1dea      	adds	r2, r5, #7
   820aa:	f022 0207 	bic.w	r2, r2, #7
   820ae:	f102 0b08 	add.w	fp, r2, #8
   820b2:	f8cd b020 	str.w	fp, [sp, #32]
   820b6:	e9d2 4500 	ldrd	r4, r5, [r2]
   820ba:	f01a 0f01 	tst.w	sl, #1
   820be:	f000 82aa 	beq.w	82616 <_vfiprintf_r+0x9ee>
   820c2:	ea54 0b05 	orrs.w	fp, r4, r5
   820c6:	f000 82a6 	beq.w	82616 <_vfiprintf_r+0x9ee>
   820ca:	2230      	movs	r2, #48	; 0x30
   820cc:	f88d 3049 	strb.w	r3, [sp, #73]	; 0x49
   820d0:	f04a 0a02 	orr.w	sl, sl, #2
   820d4:	f88d 2048 	strb.w	r2, [sp, #72]	; 0x48
   820d8:	2302      	movs	r3, #2
   820da:	e6b6      	b.n	81e4a <_vfiprintf_r+0x222>
   820dc:	9b08      	ldr	r3, [sp, #32]
   820de:	f8dd b020 	ldr.w	fp, [sp, #32]
   820e2:	681b      	ldr	r3, [r3, #0]
   820e4:	2401      	movs	r4, #1
   820e6:	f04f 0500 	mov.w	r5, #0
   820ea:	f10b 0b04 	add.w	fp, fp, #4
   820ee:	9004      	str	r0, [sp, #16]
   820f0:	9403      	str	r4, [sp, #12]
   820f2:	f88d 5047 	strb.w	r5, [sp, #71]	; 0x47
   820f6:	f88d 3058 	strb.w	r3, [sp, #88]	; 0x58
   820fa:	f8cd b020 	str.w	fp, [sp, #32]
   820fe:	9405      	str	r4, [sp, #20]
   82100:	af16      	add	r7, sp, #88	; 0x58
   82102:	f04f 0c00 	mov.w	ip, #0
   82106:	e6d0      	b.n	81eaa <_vfiprintf_r+0x282>
   82108:	f01a 0f20 	tst.w	sl, #32
   8210c:	9004      	str	r0, [sp, #16]
   8210e:	46ac      	mov	ip, r5
   82110:	f88d 1047 	strb.w	r1, [sp, #71]	; 0x47
   82114:	f47f af38 	bne.w	81f88 <_vfiprintf_r+0x360>
   82118:	f01a 0f10 	tst.w	sl, #16
   8211c:	f040 82a7 	bne.w	8266e <_vfiprintf_r+0xa46>
   82120:	f01a 0f40 	tst.w	sl, #64	; 0x40
   82124:	f000 82a3 	beq.w	8266e <_vfiprintf_r+0xa46>
   82128:	f8dd b020 	ldr.w	fp, [sp, #32]
   8212c:	f9bb 4000 	ldrsh.w	r4, [fp]
   82130:	f10b 0b04 	add.w	fp, fp, #4
   82134:	17e5      	asrs	r5, r4, #31
   82136:	4622      	mov	r2, r4
   82138:	462b      	mov	r3, r5
   8213a:	f8cd b020 	str.w	fp, [sp, #32]
   8213e:	e72d      	b.n	81f9c <_vfiprintf_r+0x374>
   82140:	f04a 0a40 	orr.w	sl, sl, #64	; 0x40
   82144:	f898 3000 	ldrb.w	r3, [r8]
   82148:	e5db      	b.n	81d02 <_vfiprintf_r+0xda>
   8214a:	f898 3000 	ldrb.w	r3, [r8]
   8214e:	4642      	mov	r2, r8
   82150:	2b6c      	cmp	r3, #108	; 0x6c
   82152:	bf03      	ittte	eq
   82154:	f108 0801 	addeq.w	r8, r8, #1
   82158:	f04a 0a20 	orreq.w	sl, sl, #32
   8215c:	7853      	ldrbeq	r3, [r2, #1]
   8215e:	f04a 0a10 	orrne.w	sl, sl, #16
   82162:	e5ce      	b.n	81d02 <_vfiprintf_r+0xda>
   82164:	f01a 0f20 	tst.w	sl, #32
   82168:	f88d 1047 	strb.w	r1, [sp, #71]	; 0x47
   8216c:	f000 82f7 	beq.w	8275e <_vfiprintf_r+0xb36>
   82170:	9c08      	ldr	r4, [sp, #32]
   82172:	6821      	ldr	r1, [r4, #0]
   82174:	9c09      	ldr	r4, [sp, #36]	; 0x24
   82176:	17e5      	asrs	r5, r4, #31
   82178:	462b      	mov	r3, r5
   8217a:	9d08      	ldr	r5, [sp, #32]
   8217c:	4622      	mov	r2, r4
   8217e:	3504      	adds	r5, #4
   82180:	9508      	str	r5, [sp, #32]
   82182:	e9c1 2300 	strd	r2, r3, [r1]
   82186:	e582      	b.n	81c8e <_vfiprintf_r+0x66>
   82188:	9c08      	ldr	r4, [sp, #32]
   8218a:	46ac      	mov	ip, r5
   8218c:	6827      	ldr	r7, [r4, #0]
   8218e:	f04f 0500 	mov.w	r5, #0
   82192:	9004      	str	r0, [sp, #16]
   82194:	f88d 5047 	strb.w	r5, [sp, #71]	; 0x47
   82198:	3404      	adds	r4, #4
   8219a:	2f00      	cmp	r7, #0
   8219c:	f000 8332 	beq.w	82804 <_vfiprintf_r+0xbdc>
   821a0:	f1bc 0f00 	cmp.w	ip, #0
   821a4:	4638      	mov	r0, r7
   821a6:	f2c0 8307 	blt.w	827b8 <_vfiprintf_r+0xb90>
   821aa:	4662      	mov	r2, ip
   821ac:	2100      	movs	r1, #0
   821ae:	f8cd c004 	str.w	ip, [sp, #4]
   821b2:	f001 fba7 	bl	83904 <memchr>
   821b6:	f8dd c004 	ldr.w	ip, [sp, #4]
   821ba:	2800      	cmp	r0, #0
   821bc:	f000 833a 	beq.w	82834 <_vfiprintf_r+0xc0c>
   821c0:	1bc0      	subs	r0, r0, r7
   821c2:	f89d 5047 	ldrb.w	r5, [sp, #71]	; 0x47
   821c6:	4560      	cmp	r0, ip
   821c8:	bfa8      	it	ge
   821ca:	4660      	movge	r0, ip
   821cc:	9005      	str	r0, [sp, #20]
   821ce:	9408      	str	r4, [sp, #32]
   821d0:	9507      	str	r5, [sp, #28]
   821d2:	f04f 0c00 	mov.w	ip, #0
   821d6:	e65b      	b.n	81e90 <_vfiprintf_r+0x268>
   821d8:	00085500 	andeq	r5, r8, r0, lsl #10
   821dc:	00085510 	andeq	r5, r8, r0, lsl r5
   821e0:	9b08      	ldr	r3, [sp, #32]
   821e2:	f8dd b020 	ldr.w	fp, [sp, #32]
   821e6:	9004      	str	r0, [sp, #16]
   821e8:	48b2      	ldr	r0, [pc, #712]	; (824b4 <_vfiprintf_r+0x88c>)
   821ea:	681c      	ldr	r4, [r3, #0]
   821ec:	2230      	movs	r2, #48	; 0x30
   821ee:	2378      	movs	r3, #120	; 0x78
   821f0:	f10b 0b04 	add.w	fp, fp, #4
   821f4:	46ac      	mov	ip, r5
   821f6:	f88d 3049 	strb.w	r3, [sp, #73]	; 0x49
   821fa:	f04a 0a02 	orr.w	sl, sl, #2
   821fe:	f8cd b020 	str.w	fp, [sp, #32]
   82202:	2500      	movs	r5, #0
   82204:	f88d 2048 	strb.w	r2, [sp, #72]	; 0x48
   82208:	900a      	str	r0, [sp, #40]	; 0x28
   8220a:	2302      	movs	r3, #2
   8220c:	e61d      	b.n	81e4a <_vfiprintf_r+0x222>
   8220e:	f04a 0a20 	orr.w	sl, sl, #32
   82212:	f898 3000 	ldrb.w	r3, [r8]
   82216:	e574      	b.n	81d02 <_vfiprintf_r+0xda>
   82218:	f8dd b020 	ldr.w	fp, [sp, #32]
   8221c:	f8db 0000 	ldr.w	r0, [fp]
   82220:	f10b 0304 	add.w	r3, fp, #4
   82224:	2800      	cmp	r0, #0
   82226:	f6ff adf7 	blt.w	81e18 <_vfiprintf_r+0x1f0>
   8222a:	9308      	str	r3, [sp, #32]
   8222c:	f898 3000 	ldrb.w	r3, [r8]
   82230:	e567      	b.n	81d02 <_vfiprintf_r+0xda>
   82232:	f898 3000 	ldrb.w	r3, [r8]
   82236:	212b      	movs	r1, #43	; 0x2b
   82238:	e563      	b.n	81d02 <_vfiprintf_r+0xda>
   8223a:	f898 3000 	ldrb.w	r3, [r8]
   8223e:	f108 0401 	add.w	r4, r8, #1
   82242:	2b2a      	cmp	r3, #42	; 0x2a
   82244:	f000 8305 	beq.w	82852 <_vfiprintf_r+0xc2a>
   82248:	f1a3 0230 	sub.w	r2, r3, #48	; 0x30
   8224c:	2a09      	cmp	r2, #9
   8224e:	bf98      	it	ls
   82250:	2500      	movls	r5, #0
   82252:	f200 82fa 	bhi.w	8284a <_vfiprintf_r+0xc22>
   82256:	f814 3b01 	ldrb.w	r3, [r4], #1
   8225a:	eb05 0585 	add.w	r5, r5, r5, lsl #2
   8225e:	eb02 0545 	add.w	r5, r2, r5, lsl #1
   82262:	f1a3 0230 	sub.w	r2, r3, #48	; 0x30
   82266:	2a09      	cmp	r2, #9
   82268:	d9f5      	bls.n	82256 <_vfiprintf_r+0x62e>
   8226a:	ea45 75e5 	orr.w	r5, r5, r5, asr #31
   8226e:	46a0      	mov	r8, r4
   82270:	e549      	b.n	81d06 <_vfiprintf_r+0xde>
   82272:	4c90      	ldr	r4, [pc, #576]	; (824b4 <_vfiprintf_r+0x88c>)
   82274:	f01a 0f20 	tst.w	sl, #32
   82278:	9004      	str	r0, [sp, #16]
   8227a:	46ac      	mov	ip, r5
   8227c:	940a      	str	r4, [sp, #40]	; 0x28
   8227e:	f88d 1047 	strb.w	r1, [sp, #71]	; 0x47
   82282:	f47f af10 	bne.w	820a6 <_vfiprintf_r+0x47e>
   82286:	f01a 0f10 	tst.w	sl, #16
   8228a:	f040 81ea 	bne.w	82662 <_vfiprintf_r+0xa3a>
   8228e:	f01a 0f40 	tst.w	sl, #64	; 0x40
   82292:	f000 81e6 	beq.w	82662 <_vfiprintf_r+0xa3a>
   82296:	f8dd b020 	ldr.w	fp, [sp, #32]
   8229a:	2500      	movs	r5, #0
   8229c:	f8bb 4000 	ldrh.w	r4, [fp]
   822a0:	f10b 0b04 	add.w	fp, fp, #4
   822a4:	f8cd b020 	str.w	fp, [sp, #32]
   822a8:	e707      	b.n	820ba <_vfiprintf_r+0x492>
   822aa:	f898 3000 	ldrb.w	r3, [r8]
   822ae:	2900      	cmp	r1, #0
   822b0:	f47f ad27 	bne.w	81d02 <_vfiprintf_r+0xda>
   822b4:	2120      	movs	r1, #32
   822b6:	e524      	b.n	81d02 <_vfiprintf_r+0xda>
   822b8:	f04a 0a01 	orr.w	sl, sl, #1
   822bc:	f898 3000 	ldrb.w	r3, [r8]
   822c0:	e51f      	b.n	81d02 <_vfiprintf_r+0xda>
   822c2:	9004      	str	r0, [sp, #16]
   822c4:	f88d 1047 	strb.w	r1, [sp, #71]	; 0x47
   822c8:	2b00      	cmp	r3, #0
   822ca:	f000 80f9 	beq.w	824c0 <_vfiprintf_r+0x898>
   822ce:	2501      	movs	r5, #1
   822d0:	f04f 0b00 	mov.w	fp, #0
   822d4:	9503      	str	r5, [sp, #12]
   822d6:	f88d 3058 	strb.w	r3, [sp, #88]	; 0x58
   822da:	f88d b047 	strb.w	fp, [sp, #71]	; 0x47
   822de:	9505      	str	r5, [sp, #20]
   822e0:	af16      	add	r7, sp, #88	; 0x58
   822e2:	e70e      	b.n	82102 <_vfiprintf_r+0x4da>
   822e4:	9806      	ldr	r0, [sp, #24]
   822e6:	9902      	ldr	r1, [sp, #8]
   822e8:	aa13      	add	r2, sp, #76	; 0x4c
   822ea:	f7ff fc61 	bl	81bb0 <__sprint_r.part.0>
   822ee:	2800      	cmp	r0, #0
   822f0:	f040 80ed 	bne.w	824ce <_vfiprintf_r+0x8a6>
   822f4:	9814      	ldr	r0, [sp, #80]	; 0x50
   822f6:	9a15      	ldr	r2, [sp, #84]	; 0x54
   822f8:	1c43      	adds	r3, r0, #1
   822fa:	46cc      	mov	ip, r9
   822fc:	e5fe      	b.n	81efc <_vfiprintf_r+0x2d4>
   822fe:	9b14      	ldr	r3, [sp, #80]	; 0x50
   82300:	9a15      	ldr	r2, [sp, #84]	; 0x54
   82302:	1c59      	adds	r1, r3, #1
   82304:	f89d 0047 	ldrb.w	r0, [sp, #71]	; 0x47
   82308:	b168      	cbz	r0, 82326 <_vfiprintf_r+0x6fe>
   8230a:	3201      	adds	r2, #1
   8230c:	f10d 0047 	add.w	r0, sp, #71	; 0x47
   82310:	2301      	movs	r3, #1
   82312:	2907      	cmp	r1, #7
   82314:	9215      	str	r2, [sp, #84]	; 0x54
   82316:	9114      	str	r1, [sp, #80]	; 0x50
   82318:	e886 0009 	stmia.w	r6, {r0, r3}
   8231c:	f300 8160 	bgt.w	825e0 <_vfiprintf_r+0x9b8>
   82320:	460b      	mov	r3, r1
   82322:	3608      	adds	r6, #8
   82324:	3101      	adds	r1, #1
   82326:	9c07      	ldr	r4, [sp, #28]
   82328:	b164      	cbz	r4, 82344 <_vfiprintf_r+0x71c>
   8232a:	3202      	adds	r2, #2
   8232c:	a812      	add	r0, sp, #72	; 0x48
   8232e:	2302      	movs	r3, #2
   82330:	2907      	cmp	r1, #7
   82332:	9215      	str	r2, [sp, #84]	; 0x54
   82334:	9114      	str	r1, [sp, #80]	; 0x50
   82336:	e886 0009 	stmia.w	r6, {r0, r3}
   8233a:	f300 8157 	bgt.w	825ec <_vfiprintf_r+0x9c4>
   8233e:	460b      	mov	r3, r1
   82340:	3608      	adds	r6, #8
   82342:	3101      	adds	r1, #1
   82344:	9d0b      	ldr	r5, [sp, #44]	; 0x2c
   82346:	2d80      	cmp	r5, #128	; 0x80
   82348:	f000 8101 	beq.w	8254e <_vfiprintf_r+0x926>
   8234c:	9d05      	ldr	r5, [sp, #20]
   8234e:	ebc5 040c 	rsb	r4, r5, ip
   82352:	2c00      	cmp	r4, #0
   82354:	dd2f      	ble.n	823b6 <_vfiprintf_r+0x78e>
   82356:	2c10      	cmp	r4, #16
   82358:	4d57      	ldr	r5, [pc, #348]	; (824b8 <_vfiprintf_r+0x890>)
   8235a:	dd22      	ble.n	823a2 <_vfiprintf_r+0x77a>
   8235c:	4630      	mov	r0, r6
   8235e:	f04f 0b10 	mov.w	fp, #16
   82362:	462e      	mov	r6, r5
   82364:	4625      	mov	r5, r4
   82366:	9c06      	ldr	r4, [sp, #24]
   82368:	e006      	b.n	82378 <_vfiprintf_r+0x750>
   8236a:	f103 0c02 	add.w	ip, r3, #2
   8236e:	3008      	adds	r0, #8
   82370:	460b      	mov	r3, r1
   82372:	3d10      	subs	r5, #16
   82374:	2d10      	cmp	r5, #16
   82376:	dd10      	ble.n	8239a <_vfiprintf_r+0x772>
   82378:	1c59      	adds	r1, r3, #1
   8237a:	3210      	adds	r2, #16
   8237c:	2907      	cmp	r1, #7
   8237e:	9215      	str	r2, [sp, #84]	; 0x54
   82380:	e880 0840 	stmia.w	r0, {r6, fp}
   82384:	9114      	str	r1, [sp, #80]	; 0x50
   82386:	ddf0      	ble.n	8236a <_vfiprintf_r+0x742>
   82388:	2a00      	cmp	r2, #0
   8238a:	d163      	bne.n	82454 <_vfiprintf_r+0x82c>
   8238c:	3d10      	subs	r5, #16
   8238e:	2d10      	cmp	r5, #16
   82390:	f04f 0c01 	mov.w	ip, #1
   82394:	4613      	mov	r3, r2
   82396:	4648      	mov	r0, r9
   82398:	dcee      	bgt.n	82378 <_vfiprintf_r+0x750>
   8239a:	462c      	mov	r4, r5
   8239c:	4661      	mov	r1, ip
   8239e:	4635      	mov	r5, r6
   823a0:	4606      	mov	r6, r0
   823a2:	4422      	add	r2, r4
   823a4:	2907      	cmp	r1, #7
   823a6:	9215      	str	r2, [sp, #84]	; 0x54
   823a8:	6035      	str	r5, [r6, #0]
   823aa:	6074      	str	r4, [r6, #4]
   823ac:	9114      	str	r1, [sp, #80]	; 0x50
   823ae:	f300 80c1 	bgt.w	82534 <_vfiprintf_r+0x90c>
   823b2:	3608      	adds	r6, #8
   823b4:	3101      	adds	r1, #1
   823b6:	9d05      	ldr	r5, [sp, #20]
   823b8:	2907      	cmp	r1, #7
   823ba:	442a      	add	r2, r5
   823bc:	9215      	str	r2, [sp, #84]	; 0x54
   823be:	6037      	str	r7, [r6, #0]
   823c0:	6075      	str	r5, [r6, #4]
   823c2:	9114      	str	r1, [sp, #80]	; 0x50
   823c4:	f340 80c1 	ble.w	8254a <_vfiprintf_r+0x922>
   823c8:	2a00      	cmp	r2, #0
   823ca:	f040 8130 	bne.w	8262e <_vfiprintf_r+0xa06>
   823ce:	9214      	str	r2, [sp, #80]	; 0x50
   823d0:	464e      	mov	r6, r9
   823d2:	f01a 0f04 	tst.w	sl, #4
   823d6:	f000 808b 	beq.w	824f0 <_vfiprintf_r+0x8c8>
   823da:	9d04      	ldr	r5, [sp, #16]
   823dc:	f8dd b00c 	ldr.w	fp, [sp, #12]
   823e0:	ebcb 0405 	rsb	r4, fp, r5
   823e4:	2c00      	cmp	r4, #0
   823e6:	f340 8083 	ble.w	824f0 <_vfiprintf_r+0x8c8>
   823ea:	2c10      	cmp	r4, #16
   823ec:	f340 821e 	ble.w	8282c <_vfiprintf_r+0xc04>
   823f0:	9914      	ldr	r1, [sp, #80]	; 0x50
   823f2:	4d32      	ldr	r5, [pc, #200]	; (824bc <_vfiprintf_r+0x894>)
   823f4:	2710      	movs	r7, #16
   823f6:	f8dd a018 	ldr.w	sl, [sp, #24]
   823fa:	f8dd b008 	ldr.w	fp, [sp, #8]
   823fe:	e005      	b.n	8240c <_vfiprintf_r+0x7e4>
   82400:	1c88      	adds	r0, r1, #2
   82402:	3608      	adds	r6, #8
   82404:	4619      	mov	r1, r3
   82406:	3c10      	subs	r4, #16
   82408:	2c10      	cmp	r4, #16
   8240a:	dd10      	ble.n	8242e <_vfiprintf_r+0x806>
   8240c:	1c4b      	adds	r3, r1, #1
   8240e:	3210      	adds	r2, #16
   82410:	2b07      	cmp	r3, #7
   82412:	9215      	str	r2, [sp, #84]	; 0x54
   82414:	e886 00a0 	stmia.w	r6, {r5, r7}
   82418:	9314      	str	r3, [sp, #80]	; 0x50
   8241a:	ddf1      	ble.n	82400 <_vfiprintf_r+0x7d8>
   8241c:	2a00      	cmp	r2, #0
   8241e:	d17d      	bne.n	8251c <_vfiprintf_r+0x8f4>
   82420:	3c10      	subs	r4, #16
   82422:	2c10      	cmp	r4, #16
   82424:	f04f 0001 	mov.w	r0, #1
   82428:	4611      	mov	r1, r2
   8242a:	464e      	mov	r6, r9
   8242c:	dcee      	bgt.n	8240c <_vfiprintf_r+0x7e4>
   8242e:	4422      	add	r2, r4
   82430:	2807      	cmp	r0, #7
   82432:	9215      	str	r2, [sp, #84]	; 0x54
   82434:	6035      	str	r5, [r6, #0]
   82436:	6074      	str	r4, [r6, #4]
   82438:	9014      	str	r0, [sp, #80]	; 0x50
   8243a:	dd59      	ble.n	824f0 <_vfiprintf_r+0x8c8>
   8243c:	2a00      	cmp	r2, #0
   8243e:	d14f      	bne.n	824e0 <_vfiprintf_r+0x8b8>
   82440:	9c09      	ldr	r4, [sp, #36]	; 0x24
   82442:	f8dd b00c 	ldr.w	fp, [sp, #12]
   82446:	9d04      	ldr	r5, [sp, #16]
   82448:	45ab      	cmp	fp, r5
   8244a:	bfac      	ite	ge
   8244c:	445c      	addge	r4, fp
   8244e:	1964      	addlt	r4, r4, r5
   82450:	9409      	str	r4, [sp, #36]	; 0x24
   82452:	e05e      	b.n	82512 <_vfiprintf_r+0x8ea>
   82454:	4620      	mov	r0, r4
   82456:	9902      	ldr	r1, [sp, #8]
   82458:	aa13      	add	r2, sp, #76	; 0x4c
   8245a:	f7ff fba9 	bl	81bb0 <__sprint_r.part.0>
   8245e:	2800      	cmp	r0, #0
   82460:	d135      	bne.n	824ce <_vfiprintf_r+0x8a6>
   82462:	9b14      	ldr	r3, [sp, #80]	; 0x50
   82464:	9a15      	ldr	r2, [sp, #84]	; 0x54
   82466:	f103 0c01 	add.w	ip, r3, #1
   8246a:	4648      	mov	r0, r9
   8246c:	e781      	b.n	82372 <_vfiprintf_r+0x74a>
   8246e:	08e0      	lsrs	r0, r4, #3
   82470:	ea40 7045 	orr.w	r0, r0, r5, lsl #29
   82474:	f004 0207 	and.w	r2, r4, #7
   82478:	08e9      	lsrs	r1, r5, #3
   8247a:	3230      	adds	r2, #48	; 0x30
   8247c:	ea50 0b01 	orrs.w	fp, r0, r1
   82480:	461f      	mov	r7, r3
   82482:	701a      	strb	r2, [r3, #0]
   82484:	4604      	mov	r4, r0
   82486:	460d      	mov	r5, r1
   82488:	f103 33ff 	add.w	r3, r3, #4294967295	; 0xffffffff
   8248c:	d1ef      	bne.n	8246e <_vfiprintf_r+0x846>
   8248e:	f01a 0f01 	tst.w	sl, #1
   82492:	e9cd 010c 	strd	r0, r1, [sp, #48]	; 0x30
   82496:	4639      	mov	r1, r7
   82498:	f000 80b9 	beq.w	8260e <_vfiprintf_r+0x9e6>
   8249c:	2a30      	cmp	r2, #48	; 0x30
   8249e:	f43f acf4 	beq.w	81e8a <_vfiprintf_r+0x262>
   824a2:	461f      	mov	r7, r3
   824a4:	ebc7 0509 	rsb	r5, r7, r9
   824a8:	2330      	movs	r3, #48	; 0x30
   824aa:	9505      	str	r5, [sp, #20]
   824ac:	f801 3c01 	strb.w	r3, [r1, #-1]
   824b0:	e4ee      	b.n	81e90 <_vfiprintf_r+0x268>
   824b2:	bf00      	nop
   824b4:	00085524 	andeq	r5, r8, r4, lsr #10
   824b8:	00085540 	andeq	r5, r8, r0, asr #10
   824bc:	00085500 	andeq	r5, r8, r0, lsl #10
   824c0:	9b15      	ldr	r3, [sp, #84]	; 0x54
   824c2:	b123      	cbz	r3, 824ce <_vfiprintf_r+0x8a6>
   824c4:	9806      	ldr	r0, [sp, #24]
   824c6:	9902      	ldr	r1, [sp, #8]
   824c8:	aa13      	add	r2, sp, #76	; 0x4c
   824ca:	f7ff fb71 	bl	81bb0 <__sprint_r.part.0>
   824ce:	9c02      	ldr	r4, [sp, #8]
   824d0:	89a3      	ldrh	r3, [r4, #12]
   824d2:	065b      	lsls	r3, r3, #25
   824d4:	f53f ac98 	bmi.w	81e08 <_vfiprintf_r+0x1e0>
   824d8:	9809      	ldr	r0, [sp, #36]	; 0x24
   824da:	b031      	add	sp, #196	; 0xc4
   824dc:	e8bd 8ff0 	ldmia.w	sp!, {r4, r5, r6, r7, r8, r9, sl, fp, pc}
   824e0:	9806      	ldr	r0, [sp, #24]
   824e2:	9902      	ldr	r1, [sp, #8]
   824e4:	aa13      	add	r2, sp, #76	; 0x4c
   824e6:	f7ff fb63 	bl	81bb0 <__sprint_r.part.0>
   824ea:	2800      	cmp	r0, #0
   824ec:	d1ef      	bne.n	824ce <_vfiprintf_r+0x8a6>
   824ee:	9a15      	ldr	r2, [sp, #84]	; 0x54
   824f0:	9c09      	ldr	r4, [sp, #36]	; 0x24
   824f2:	f8dd b00c 	ldr.w	fp, [sp, #12]
   824f6:	9d04      	ldr	r5, [sp, #16]
   824f8:	45ab      	cmp	fp, r5
   824fa:	bfac      	ite	ge
   824fc:	445c      	addge	r4, fp
   824fe:	1964      	addlt	r4, r4, r5
   82500:	9409      	str	r4, [sp, #36]	; 0x24
   82502:	b132      	cbz	r2, 82512 <_vfiprintf_r+0x8ea>
   82504:	9806      	ldr	r0, [sp, #24]
   82506:	9902      	ldr	r1, [sp, #8]
   82508:	aa13      	add	r2, sp, #76	; 0x4c
   8250a:	f7ff fb51 	bl	81bb0 <__sprint_r.part.0>
   8250e:	2800      	cmp	r0, #0
   82510:	d1dd      	bne.n	824ce <_vfiprintf_r+0x8a6>
   82512:	2000      	movs	r0, #0
   82514:	9014      	str	r0, [sp, #80]	; 0x50
   82516:	464e      	mov	r6, r9
   82518:	f7ff bbb9 	b.w	81c8e <_vfiprintf_r+0x66>
   8251c:	4650      	mov	r0, sl
   8251e:	4659      	mov	r1, fp
   82520:	aa13      	add	r2, sp, #76	; 0x4c
   82522:	f7ff fb45 	bl	81bb0 <__sprint_r.part.0>
   82526:	2800      	cmp	r0, #0
   82528:	d1d1      	bne.n	824ce <_vfiprintf_r+0x8a6>
   8252a:	9914      	ldr	r1, [sp, #80]	; 0x50
   8252c:	9a15      	ldr	r2, [sp, #84]	; 0x54
   8252e:	1c48      	adds	r0, r1, #1
   82530:	464e      	mov	r6, r9
   82532:	e768      	b.n	82406 <_vfiprintf_r+0x7de>
   82534:	2a00      	cmp	r2, #0
   82536:	f040 80f7 	bne.w	82728 <_vfiprintf_r+0xb00>
   8253a:	9c05      	ldr	r4, [sp, #20]
   8253c:	2301      	movs	r3, #1
   8253e:	9720      	str	r7, [sp, #128]	; 0x80
   82540:	9421      	str	r4, [sp, #132]	; 0x84
   82542:	9415      	str	r4, [sp, #84]	; 0x54
   82544:	4622      	mov	r2, r4
   82546:	9314      	str	r3, [sp, #80]	; 0x50
   82548:	464e      	mov	r6, r9
   8254a:	3608      	adds	r6, #8
   8254c:	e741      	b.n	823d2 <_vfiprintf_r+0x7aa>
   8254e:	9d04      	ldr	r5, [sp, #16]
   82550:	f8dd b00c 	ldr.w	fp, [sp, #12]
   82554:	ebcb 0405 	rsb	r4, fp, r5
   82558:	2c00      	cmp	r4, #0
   8255a:	f77f aef7 	ble.w	8234c <_vfiprintf_r+0x724>
   8255e:	2c10      	cmp	r4, #16
   82560:	4da6      	ldr	r5, [pc, #664]	; (827fc <_vfiprintf_r+0xbd4>)
   82562:	f340 8170 	ble.w	82846 <_vfiprintf_r+0xc1e>
   82566:	4629      	mov	r1, r5
   82568:	f04f 0b10 	mov.w	fp, #16
   8256c:	4625      	mov	r5, r4
   8256e:	4664      	mov	r4, ip
   82570:	46b4      	mov	ip, r6
   82572:	460e      	mov	r6, r1
   82574:	e006      	b.n	82584 <_vfiprintf_r+0x95c>
   82576:	1c98      	adds	r0, r3, #2
   82578:	f10c 0c08 	add.w	ip, ip, #8
   8257c:	460b      	mov	r3, r1
   8257e:	3d10      	subs	r5, #16
   82580:	2d10      	cmp	r5, #16
   82582:	dd0f      	ble.n	825a4 <_vfiprintf_r+0x97c>
   82584:	1c59      	adds	r1, r3, #1
   82586:	3210      	adds	r2, #16
   82588:	2907      	cmp	r1, #7
   8258a:	9215      	str	r2, [sp, #84]	; 0x54
   8258c:	e88c 0840 	stmia.w	ip, {r6, fp}
   82590:	9114      	str	r1, [sp, #80]	; 0x50
   82592:	ddf0      	ble.n	82576 <_vfiprintf_r+0x94e>
   82594:	b9ba      	cbnz	r2, 825c6 <_vfiprintf_r+0x99e>
   82596:	3d10      	subs	r5, #16
   82598:	2d10      	cmp	r5, #16
   8259a:	f04f 0001 	mov.w	r0, #1
   8259e:	4613      	mov	r3, r2
   825a0:	46cc      	mov	ip, r9
   825a2:	dcef      	bgt.n	82584 <_vfiprintf_r+0x95c>
   825a4:	4633      	mov	r3, r6
   825a6:	4666      	mov	r6, ip
   825a8:	46a4      	mov	ip, r4
   825aa:	462c      	mov	r4, r5
   825ac:	461d      	mov	r5, r3
   825ae:	4422      	add	r2, r4
   825b0:	2807      	cmp	r0, #7
   825b2:	9215      	str	r2, [sp, #84]	; 0x54
   825b4:	6035      	str	r5, [r6, #0]
   825b6:	6074      	str	r4, [r6, #4]
   825b8:	9014      	str	r0, [sp, #80]	; 0x50
   825ba:	f300 80af 	bgt.w	8271c <_vfiprintf_r+0xaf4>
   825be:	3608      	adds	r6, #8
   825c0:	1c41      	adds	r1, r0, #1
   825c2:	4603      	mov	r3, r0
   825c4:	e6c2      	b.n	8234c <_vfiprintf_r+0x724>
   825c6:	9806      	ldr	r0, [sp, #24]
   825c8:	9902      	ldr	r1, [sp, #8]
   825ca:	aa13      	add	r2, sp, #76	; 0x4c
   825cc:	f7ff faf0 	bl	81bb0 <__sprint_r.part.0>
   825d0:	2800      	cmp	r0, #0
   825d2:	f47f af7c 	bne.w	824ce <_vfiprintf_r+0x8a6>
   825d6:	9b14      	ldr	r3, [sp, #80]	; 0x50
   825d8:	9a15      	ldr	r2, [sp, #84]	; 0x54
   825da:	1c58      	adds	r0, r3, #1
   825dc:	46cc      	mov	ip, r9
   825de:	e7ce      	b.n	8257e <_vfiprintf_r+0x956>
   825e0:	2a00      	cmp	r2, #0
   825e2:	d179      	bne.n	826d8 <_vfiprintf_r+0xab0>
   825e4:	4619      	mov	r1, r3
   825e6:	464e      	mov	r6, r9
   825e8:	4613      	mov	r3, r2
   825ea:	e69c      	b.n	82326 <_vfiprintf_r+0x6fe>
   825ec:	2a00      	cmp	r2, #0
   825ee:	f040 8084 	bne.w	826fa <_vfiprintf_r+0xad2>
   825f2:	2101      	movs	r1, #1
   825f4:	4613      	mov	r3, r2
   825f6:	464e      	mov	r6, r9
   825f8:	e6a4      	b.n	82344 <_vfiprintf_r+0x71c>
   825fa:	464f      	mov	r7, r9
   825fc:	e448      	b.n	81e90 <_vfiprintf_r+0x268>
   825fe:	2d00      	cmp	r5, #0
   82600:	bf08      	it	eq
   82602:	2c0a      	cmpeq	r4, #10
   82604:	d246      	bcs.n	82694 <_vfiprintf_r+0xa6c>
   82606:	3430      	adds	r4, #48	; 0x30
   82608:	af30      	add	r7, sp, #192	; 0xc0
   8260a:	f807 4d41 	strb.w	r4, [r7, #-65]!
   8260e:	ebc7 0309 	rsb	r3, r7, r9
   82612:	9305      	str	r3, [sp, #20]
   82614:	e43c      	b.n	81e90 <_vfiprintf_r+0x268>
   82616:	2302      	movs	r3, #2
   82618:	e417      	b.n	81e4a <_vfiprintf_r+0x222>
   8261a:	2a00      	cmp	r2, #0
   8261c:	f040 80af 	bne.w	8277e <_vfiprintf_r+0xb56>
   82620:	4613      	mov	r3, r2
   82622:	2101      	movs	r1, #1
   82624:	464e      	mov	r6, r9
   82626:	e66d      	b.n	82304 <_vfiprintf_r+0x6dc>
   82628:	4644      	mov	r4, r8
   8262a:	f7ff bb58 	b.w	81cde <_vfiprintf_r+0xb6>
   8262e:	9806      	ldr	r0, [sp, #24]
   82630:	9902      	ldr	r1, [sp, #8]
   82632:	aa13      	add	r2, sp, #76	; 0x4c
   82634:	f7ff fabc 	bl	81bb0 <__sprint_r.part.0>
   82638:	2800      	cmp	r0, #0
   8263a:	f47f af48 	bne.w	824ce <_vfiprintf_r+0x8a6>
   8263e:	9a15      	ldr	r2, [sp, #84]	; 0x54
   82640:	464e      	mov	r6, r9
   82642:	e6c6      	b.n	823d2 <_vfiprintf_r+0x7aa>
   82644:	9d08      	ldr	r5, [sp, #32]
   82646:	682c      	ldr	r4, [r5, #0]
   82648:	3504      	adds	r5, #4
   8264a:	9508      	str	r5, [sp, #32]
   8264c:	2500      	movs	r5, #0
   8264e:	f7ff bbfc 	b.w	81e4a <_vfiprintf_r+0x222>
   82652:	9d08      	ldr	r5, [sp, #32]
   82654:	2301      	movs	r3, #1
   82656:	682c      	ldr	r4, [r5, #0]
   82658:	3504      	adds	r5, #4
   8265a:	9508      	str	r5, [sp, #32]
   8265c:	2500      	movs	r5, #0
   8265e:	f7ff bbf4 	b.w	81e4a <_vfiprintf_r+0x222>
   82662:	9d08      	ldr	r5, [sp, #32]
   82664:	682c      	ldr	r4, [r5, #0]
   82666:	3504      	adds	r5, #4
   82668:	9508      	str	r5, [sp, #32]
   8266a:	2500      	movs	r5, #0
   8266c:	e525      	b.n	820ba <_vfiprintf_r+0x492>
   8266e:	9d08      	ldr	r5, [sp, #32]
   82670:	682c      	ldr	r4, [r5, #0]
   82672:	3504      	adds	r5, #4
   82674:	9508      	str	r5, [sp, #32]
   82676:	17e5      	asrs	r5, r4, #31
   82678:	4622      	mov	r2, r4
   8267a:	462b      	mov	r3, r5
   8267c:	e48e      	b.n	81f9c <_vfiprintf_r+0x374>
   8267e:	9806      	ldr	r0, [sp, #24]
   82680:	9902      	ldr	r1, [sp, #8]
   82682:	aa13      	add	r2, sp, #76	; 0x4c
   82684:	f7ff fa94 	bl	81bb0 <__sprint_r.part.0>
   82688:	2800      	cmp	r0, #0
   8268a:	f47f af20 	bne.w	824ce <_vfiprintf_r+0x8a6>
   8268e:	464e      	mov	r6, r9
   82690:	f7ff bb9a 	b.w	81dc8 <_vfiprintf_r+0x1a0>
   82694:	f10d 0b7f 	add.w	fp, sp, #127	; 0x7f
   82698:	9603      	str	r6, [sp, #12]
   8269a:	465e      	mov	r6, fp
   8269c:	46e3      	mov	fp, ip
   8269e:	4620      	mov	r0, r4
   826a0:	4629      	mov	r1, r5
   826a2:	220a      	movs	r2, #10
   826a4:	2300      	movs	r3, #0
   826a6:	f001 fe39 	bl	8431c <__aeabi_uldivmod>
   826aa:	3230      	adds	r2, #48	; 0x30
   826ac:	7032      	strb	r2, [r6, #0]
   826ae:	4620      	mov	r0, r4
   826b0:	4629      	mov	r1, r5
   826b2:	220a      	movs	r2, #10
   826b4:	2300      	movs	r3, #0
   826b6:	f001 fe31 	bl	8431c <__aeabi_uldivmod>
   826ba:	4604      	mov	r4, r0
   826bc:	460d      	mov	r5, r1
   826be:	ea54 0005 	orrs.w	r0, r4, r5
   826c2:	4637      	mov	r7, r6
   826c4:	f106 36ff 	add.w	r6, r6, #4294967295	; 0xffffffff
   826c8:	d1e9      	bne.n	8269e <_vfiprintf_r+0xa76>
   826ca:	ebc7 0309 	rsb	r3, r7, r9
   826ce:	46dc      	mov	ip, fp
   826d0:	9e03      	ldr	r6, [sp, #12]
   826d2:	9305      	str	r3, [sp, #20]
   826d4:	f7ff bbdc 	b.w	81e90 <_vfiprintf_r+0x268>
   826d8:	9806      	ldr	r0, [sp, #24]
   826da:	9902      	ldr	r1, [sp, #8]
   826dc:	aa13      	add	r2, sp, #76	; 0x4c
   826de:	f8cd c004 	str.w	ip, [sp, #4]
   826e2:	f7ff fa65 	bl	81bb0 <__sprint_r.part.0>
   826e6:	f8dd c004 	ldr.w	ip, [sp, #4]
   826ea:	2800      	cmp	r0, #0
   826ec:	f47f aeef 	bne.w	824ce <_vfiprintf_r+0x8a6>
   826f0:	9b14      	ldr	r3, [sp, #80]	; 0x50
   826f2:	9a15      	ldr	r2, [sp, #84]	; 0x54
   826f4:	1c59      	adds	r1, r3, #1
   826f6:	464e      	mov	r6, r9
   826f8:	e615      	b.n	82326 <_vfiprintf_r+0x6fe>
   826fa:	9806      	ldr	r0, [sp, #24]
   826fc:	9902      	ldr	r1, [sp, #8]
   826fe:	aa13      	add	r2, sp, #76	; 0x4c
   82700:	f8cd c004 	str.w	ip, [sp, #4]
   82704:	f7ff fa54 	bl	81bb0 <__sprint_r.part.0>
   82708:	f8dd c004 	ldr.w	ip, [sp, #4]
   8270c:	2800      	cmp	r0, #0
   8270e:	f47f aede 	bne.w	824ce <_vfiprintf_r+0x8a6>
   82712:	9b14      	ldr	r3, [sp, #80]	; 0x50
   82714:	9a15      	ldr	r2, [sp, #84]	; 0x54
   82716:	1c59      	adds	r1, r3, #1
   82718:	464e      	mov	r6, r9
   8271a:	e613      	b.n	82344 <_vfiprintf_r+0x71c>
   8271c:	2a00      	cmp	r2, #0
   8271e:	d156      	bne.n	827ce <_vfiprintf_r+0xba6>
   82720:	2101      	movs	r1, #1
   82722:	4613      	mov	r3, r2
   82724:	464e      	mov	r6, r9
   82726:	e611      	b.n	8234c <_vfiprintf_r+0x724>
   82728:	9806      	ldr	r0, [sp, #24]
   8272a:	9902      	ldr	r1, [sp, #8]
   8272c:	aa13      	add	r2, sp, #76	; 0x4c
   8272e:	f7ff fa3f 	bl	81bb0 <__sprint_r.part.0>
   82732:	2800      	cmp	r0, #0
   82734:	f47f aecb 	bne.w	824ce <_vfiprintf_r+0x8a6>
   82738:	9914      	ldr	r1, [sp, #80]	; 0x50
   8273a:	9a15      	ldr	r2, [sp, #84]	; 0x54
   8273c:	3101      	adds	r1, #1
   8273e:	464e      	mov	r6, r9
   82740:	e639      	b.n	823b6 <_vfiprintf_r+0x78e>
   82742:	f04f 0b2d 	mov.w	fp, #45	; 0x2d
   82746:	4264      	negs	r4, r4
   82748:	eb65 0545 	sbc.w	r5, r5, r5, lsl #1
   8274c:	f88d b047 	strb.w	fp, [sp, #71]	; 0x47
   82750:	f8cd b01c 	str.w	fp, [sp, #28]
   82754:	f8cd c014 	str.w	ip, [sp, #20]
   82758:	2301      	movs	r3, #1
   8275a:	f7ff bb7e 	b.w	81e5a <_vfiprintf_r+0x232>
   8275e:	f01a 0f10 	tst.w	sl, #16
   82762:	d11d      	bne.n	827a0 <_vfiprintf_r+0xb78>
   82764:	f01a 0f40 	tst.w	sl, #64	; 0x40
   82768:	d058      	beq.n	8281c <_vfiprintf_r+0xbf4>
   8276a:	9d08      	ldr	r5, [sp, #32]
   8276c:	f8dd b024 	ldr.w	fp, [sp, #36]	; 0x24
   82770:	682b      	ldr	r3, [r5, #0]
   82772:	3504      	adds	r5, #4
   82774:	9508      	str	r5, [sp, #32]
   82776:	f8a3 b000 	strh.w	fp, [r3]
   8277a:	f7ff ba88 	b.w	81c8e <_vfiprintf_r+0x66>
   8277e:	9806      	ldr	r0, [sp, #24]
   82780:	9902      	ldr	r1, [sp, #8]
   82782:	aa13      	add	r2, sp, #76	; 0x4c
   82784:	f8cd c004 	str.w	ip, [sp, #4]
   82788:	f7ff fa12 	bl	81bb0 <__sprint_r.part.0>
   8278c:	f8dd c004 	ldr.w	ip, [sp, #4]
   82790:	2800      	cmp	r0, #0
   82792:	f47f ae9c 	bne.w	824ce <_vfiprintf_r+0x8a6>
   82796:	9b14      	ldr	r3, [sp, #80]	; 0x50
   82798:	9a15      	ldr	r2, [sp, #84]	; 0x54
   8279a:	1c59      	adds	r1, r3, #1
   8279c:	464e      	mov	r6, r9
   8279e:	e5b1      	b.n	82304 <_vfiprintf_r+0x6dc>
   827a0:	f8dd b020 	ldr.w	fp, [sp, #32]
   827a4:	9c09      	ldr	r4, [sp, #36]	; 0x24
   827a6:	f8db 3000 	ldr.w	r3, [fp]
   827aa:	f10b 0b04 	add.w	fp, fp, #4
   827ae:	f8cd b020 	str.w	fp, [sp, #32]
   827b2:	601c      	str	r4, [r3, #0]
   827b4:	f7ff ba6b 	b.w	81c8e <_vfiprintf_r+0x66>
   827b8:	9408      	str	r4, [sp, #32]
   827ba:	f7ff f9c1 	bl	81b40 <strlen>
   827be:	f89d 4047 	ldrb.w	r4, [sp, #71]	; 0x47
   827c2:	9005      	str	r0, [sp, #20]
   827c4:	9407      	str	r4, [sp, #28]
   827c6:	f04f 0c00 	mov.w	ip, #0
   827ca:	f7ff bb61 	b.w	81e90 <_vfiprintf_r+0x268>
   827ce:	9806      	ldr	r0, [sp, #24]
   827d0:	9902      	ldr	r1, [sp, #8]
   827d2:	aa13      	add	r2, sp, #76	; 0x4c
   827d4:	f8cd c004 	str.w	ip, [sp, #4]
   827d8:	f7ff f9ea 	bl	81bb0 <__sprint_r.part.0>
   827dc:	f8dd c004 	ldr.w	ip, [sp, #4]
   827e0:	2800      	cmp	r0, #0
   827e2:	f47f ae74 	bne.w	824ce <_vfiprintf_r+0x8a6>
   827e6:	9b14      	ldr	r3, [sp, #80]	; 0x50
   827e8:	9a15      	ldr	r2, [sp, #84]	; 0x54
   827ea:	1c59      	adds	r1, r3, #1
   827ec:	464e      	mov	r6, r9
   827ee:	e5ad      	b.n	8234c <_vfiprintf_r+0x724>
   827f0:	9b14      	ldr	r3, [sp, #80]	; 0x50
   827f2:	9a15      	ldr	r2, [sp, #84]	; 0x54
   827f4:	3301      	adds	r3, #1
   827f6:	4d02      	ldr	r5, [pc, #8]	; (82800 <_vfiprintf_r+0xbd8>)
   827f8:	f7ff bb9a 	b.w	81f30 <_vfiprintf_r+0x308>
   827fc:	00085540 	andeq	r5, r8, r0, asr #10
   82800:	00085500 	andeq	r5, r8, r0, lsl #10
   82804:	f1bc 0f06 	cmp.w	ip, #6
   82808:	bf34      	ite	cc
   8280a:	4663      	movcc	r3, ip
   8280c:	2306      	movcs	r3, #6
   8280e:	9408      	str	r4, [sp, #32]
   82810:	ea23 74e3 	bic.w	r4, r3, r3, asr #31
   82814:	9305      	str	r3, [sp, #20]
   82816:	9403      	str	r4, [sp, #12]
   82818:	4f16      	ldr	r7, [pc, #88]	; (82874 <_vfiprintf_r+0xc4c>)
   8281a:	e472      	b.n	82102 <_vfiprintf_r+0x4da>
   8281c:	9c08      	ldr	r4, [sp, #32]
   8281e:	9d09      	ldr	r5, [sp, #36]	; 0x24
   82820:	6823      	ldr	r3, [r4, #0]
   82822:	3404      	adds	r4, #4
   82824:	9408      	str	r4, [sp, #32]
   82826:	601d      	str	r5, [r3, #0]
   82828:	f7ff ba31 	b.w	81c8e <_vfiprintf_r+0x66>
   8282c:	9814      	ldr	r0, [sp, #80]	; 0x50
   8282e:	4d12      	ldr	r5, [pc, #72]	; (82878 <_vfiprintf_r+0xc50>)
   82830:	3001      	adds	r0, #1
   82832:	e5fc      	b.n	8242e <_vfiprintf_r+0x806>
   82834:	f89d 5047 	ldrb.w	r5, [sp, #71]	; 0x47
   82838:	f8cd c014 	str.w	ip, [sp, #20]
   8283c:	9507      	str	r5, [sp, #28]
   8283e:	9408      	str	r4, [sp, #32]
   82840:	4684      	mov	ip, r0
   82842:	f7ff bb25 	b.w	81e90 <_vfiprintf_r+0x268>
   82846:	4608      	mov	r0, r1
   82848:	e6b1      	b.n	825ae <_vfiprintf_r+0x986>
   8284a:	46a0      	mov	r8, r4
   8284c:	2500      	movs	r5, #0
   8284e:	f7ff ba5a 	b.w	81d06 <_vfiprintf_r+0xde>
   82852:	f8dd b020 	ldr.w	fp, [sp, #32]
   82856:	f898 3001 	ldrb.w	r3, [r8, #1]
   8285a:	f8db 5000 	ldr.w	r5, [fp]
   8285e:	f10b 0204 	add.w	r2, fp, #4
   82862:	2d00      	cmp	r5, #0
   82864:	9208      	str	r2, [sp, #32]
   82866:	46a0      	mov	r8, r4
   82868:	f6bf aa4b 	bge.w	81d02 <_vfiprintf_r+0xda>
   8286c:	f04f 35ff 	mov.w	r5, #4294967295	; 0xffffffff
   82870:	f7ff ba47 	b.w	81d02 <_vfiprintf_r+0xda>
   82874:	00085538 	andeq	r5, r8, r8, lsr r5
   82878:	00085500 	andeq	r5, r8, r0, lsl #10

0008287c <__sbprintf>:
   8287c:	e92d 47f0 	stmdb	sp!, {r4, r5, r6, r7, r8, r9, sl, lr}
   82880:	6e4f      	ldr	r7, [r1, #100]	; 0x64
   82882:	f5ad 6d8d 	sub.w	sp, sp, #1128	; 0x468
   82886:	4688      	mov	r8, r1
   82888:	9719      	str	r7, [sp, #100]	; 0x64
   8288a:	f8d8 701c 	ldr.w	r7, [r8, #28]
   8288e:	f8b1 a00c 	ldrh.w	sl, [r1, #12]
   82892:	f8b1 900e 	ldrh.w	r9, [r1, #14]
   82896:	9707      	str	r7, [sp, #28]
   82898:	f8d8 7024 	ldr.w	r7, [r8, #36]	; 0x24
   8289c:	ac1a      	add	r4, sp, #104	; 0x68
   8289e:	f44f 6580 	mov.w	r5, #1024	; 0x400
   828a2:	f02a 0a02 	bic.w	sl, sl, #2
   828a6:	2600      	movs	r6, #0
   828a8:	4669      	mov	r1, sp
   828aa:	9400      	str	r4, [sp, #0]
   828ac:	9404      	str	r4, [sp, #16]
   828ae:	9502      	str	r5, [sp, #8]
   828b0:	9505      	str	r5, [sp, #20]
   828b2:	f8ad a00c 	strh.w	sl, [sp, #12]
   828b6:	f8ad 900e 	strh.w	r9, [sp, #14]
   828ba:	9709      	str	r7, [sp, #36]	; 0x24
   828bc:	9606      	str	r6, [sp, #24]
   828be:	4605      	mov	r5, r0
   828c0:	f7ff f9b2 	bl	81c28 <_vfiprintf_r>
   828c4:	1e04      	subs	r4, r0, #0
   828c6:	db07      	blt.n	828d8 <__sbprintf+0x5c>
   828c8:	4628      	mov	r0, r5
   828ca:	4669      	mov	r1, sp
   828cc:	f000 f92a 	bl	82b24 <_fflush_r>
   828d0:	42b0      	cmp	r0, r6
   828d2:	bf18      	it	ne
   828d4:	f04f 34ff 	movne.w	r4, #4294967295	; 0xffffffff
   828d8:	f8bd 300c 	ldrh.w	r3, [sp, #12]
   828dc:	065b      	lsls	r3, r3, #25
   828de:	d505      	bpl.n	828ec <__sbprintf+0x70>
   828e0:	f8b8 300c 	ldrh.w	r3, [r8, #12]
   828e4:	f043 0340 	orr.w	r3, r3, #64	; 0x40
   828e8:	f8a8 300c 	strh.w	r3, [r8, #12]
   828ec:	4620      	mov	r0, r4
   828ee:	f50d 6d8d 	add.w	sp, sp, #1128	; 0x468
   828f2:	e8bd 87f0 	ldmia.w	sp!, {r4, r5, r6, r7, r8, r9, sl, pc}
   828f6:	bf00      	nop

000828f8 <__swsetup_r>:
   828f8:	4b2f      	ldr	r3, [pc, #188]	; (829b8 <__swsetup_r+0xc0>)
   828fa:	b570      	push	{r4, r5, r6, lr}
   828fc:	4606      	mov	r6, r0
   828fe:	6818      	ldr	r0, [r3, #0]
   82900:	460c      	mov	r4, r1
   82902:	b110      	cbz	r0, 8290a <__swsetup_r+0x12>
   82904:	6b82      	ldr	r2, [r0, #56]	; 0x38
   82906:	2a00      	cmp	r2, #0
   82908:	d036      	beq.n	82978 <__swsetup_r+0x80>
   8290a:	89a5      	ldrh	r5, [r4, #12]
   8290c:	b2ab      	uxth	r3, r5
   8290e:	0719      	lsls	r1, r3, #28
   82910:	d50c      	bpl.n	8292c <__swsetup_r+0x34>
   82912:	6922      	ldr	r2, [r4, #16]
   82914:	b1aa      	cbz	r2, 82942 <__swsetup_r+0x4a>
   82916:	f013 0101 	ands.w	r1, r3, #1
   8291a:	d01e      	beq.n	8295a <__swsetup_r+0x62>
   8291c:	6963      	ldr	r3, [r4, #20]
   8291e:	2100      	movs	r1, #0
   82920:	425b      	negs	r3, r3
   82922:	61a3      	str	r3, [r4, #24]
   82924:	60a1      	str	r1, [r4, #8]
   82926:	b1f2      	cbz	r2, 82966 <__swsetup_r+0x6e>
   82928:	2000      	movs	r0, #0
   8292a:	bd70      	pop	{r4, r5, r6, pc}
   8292c:	06da      	lsls	r2, r3, #27
   8292e:	d53a      	bpl.n	829a6 <__swsetup_r+0xae>
   82930:	075b      	lsls	r3, r3, #29
   82932:	d424      	bmi.n	8297e <__swsetup_r+0x86>
   82934:	6922      	ldr	r2, [r4, #16]
   82936:	f045 0308 	orr.w	r3, r5, #8
   8293a:	81a3      	strh	r3, [r4, #12]
   8293c:	b29b      	uxth	r3, r3
   8293e:	2a00      	cmp	r2, #0
   82940:	d1e9      	bne.n	82916 <__swsetup_r+0x1e>
   82942:	f403 7120 	and.w	r1, r3, #640	; 0x280
   82946:	f5b1 7f00 	cmp.w	r1, #512	; 0x200
   8294a:	d0e4      	beq.n	82916 <__swsetup_r+0x1e>
   8294c:	4630      	mov	r0, r6
   8294e:	4621      	mov	r1, r4
   82950:	f000 fccc 	bl	832ec <__smakebuf_r>
   82954:	89a3      	ldrh	r3, [r4, #12]
   82956:	6922      	ldr	r2, [r4, #16]
   82958:	e7dd      	b.n	82916 <__swsetup_r+0x1e>
   8295a:	0798      	lsls	r0, r3, #30
   8295c:	bf58      	it	pl
   8295e:	6961      	ldrpl	r1, [r4, #20]
   82960:	60a1      	str	r1, [r4, #8]
   82962:	2a00      	cmp	r2, #0
   82964:	d1e0      	bne.n	82928 <__swsetup_r+0x30>
   82966:	89a3      	ldrh	r3, [r4, #12]
   82968:	061a      	lsls	r2, r3, #24
   8296a:	d5dd      	bpl.n	82928 <__swsetup_r+0x30>
   8296c:	f043 0340 	orr.w	r3, r3, #64	; 0x40
   82970:	81a3      	strh	r3, [r4, #12]
   82972:	f04f 30ff 	mov.w	r0, #4294967295	; 0xffffffff
   82976:	bd70      	pop	{r4, r5, r6, pc}
   82978:	f000 f8f0 	bl	82b5c <__sinit>
   8297c:	e7c5      	b.n	8290a <__swsetup_r+0x12>
   8297e:	6b21      	ldr	r1, [r4, #48]	; 0x30
   82980:	b149      	cbz	r1, 82996 <__swsetup_r+0x9e>
   82982:	f104 0340 	add.w	r3, r4, #64	; 0x40
   82986:	4299      	cmp	r1, r3
   82988:	d003      	beq.n	82992 <__swsetup_r+0x9a>
   8298a:	4630      	mov	r0, r6
   8298c:	f000 fa2a 	bl	82de4 <_free_r>
   82990:	89a5      	ldrh	r5, [r4, #12]
   82992:	2300      	movs	r3, #0
   82994:	6323      	str	r3, [r4, #48]	; 0x30
   82996:	6922      	ldr	r2, [r4, #16]
   82998:	f025 0524 	bic.w	r5, r5, #36	; 0x24
   8299c:	2100      	movs	r1, #0
   8299e:	b2ad      	uxth	r5, r5
   829a0:	6022      	str	r2, [r4, #0]
   829a2:	6061      	str	r1, [r4, #4]
   829a4:	e7c7      	b.n	82936 <__swsetup_r+0x3e>
   829a6:	f045 0540 	orr.w	r5, r5, #64	; 0x40
   829aa:	2309      	movs	r3, #9
   829ac:	6033      	str	r3, [r6, #0]
   829ae:	f04f 30ff 	mov.w	r0, #4294967295	; 0xffffffff
   829b2:	81a5      	strh	r5, [r4, #12]
   829b4:	bd70      	pop	{r4, r5, r6, pc}
   829b6:	bf00      	nop
   829b8:	20070498 	mulcs	r7, r8, r4

000829bc <register_fini>:
   829bc:	4b02      	ldr	r3, [pc, #8]	; (829c8 <register_fini+0xc>)
   829be:	b113      	cbz	r3, 829c6 <register_fini+0xa>
   829c0:	4802      	ldr	r0, [pc, #8]	; (829cc <register_fini+0x10>)
   829c2:	f000 b805 	b.w	829d0 <atexit>
   829c6:	4770      	bx	lr
   829c8:	00000000 	andeq	r0, r0, r0
   829cc:	00082c59 	andeq	r2, r8, r9, asr ip

000829d0 <atexit>:
   829d0:	4601      	mov	r1, r0
   829d2:	2000      	movs	r0, #0
   829d4:	4602      	mov	r2, r0
   829d6:	4603      	mov	r3, r0
   829d8:	f001 bba4 	b.w	84124 <__register_exitproc>

000829dc <__sflush_r>:
   829dc:	898b      	ldrh	r3, [r1, #12]
   829de:	e92d 41f0 	stmdb	sp!, {r4, r5, r6, r7, r8, lr}
   829e2:	b29a      	uxth	r2, r3
   829e4:	460d      	mov	r5, r1
   829e6:	0711      	lsls	r1, r2, #28
   829e8:	4680      	mov	r8, r0
   829ea:	d43c      	bmi.n	82a66 <__sflush_r+0x8a>
   829ec:	686a      	ldr	r2, [r5, #4]
   829ee:	f443 6300 	orr.w	r3, r3, #2048	; 0x800
   829f2:	2a00      	cmp	r2, #0
   829f4:	81ab      	strh	r3, [r5, #12]
   829f6:	dd59      	ble.n	82aac <__sflush_r+0xd0>
   829f8:	6aac      	ldr	r4, [r5, #40]	; 0x28
   829fa:	2c00      	cmp	r4, #0
   829fc:	d04b      	beq.n	82a96 <__sflush_r+0xba>
   829fe:	b29b      	uxth	r3, r3
   82a00:	f403 5280 	and.w	r2, r3, #4096	; 0x1000
   82a04:	2100      	movs	r1, #0
   82a06:	b292      	uxth	r2, r2
   82a08:	f8d8 6000 	ldr.w	r6, [r8]
   82a0c:	f8c8 1000 	str.w	r1, [r8]
   82a10:	2a00      	cmp	r2, #0
   82a12:	d04f      	beq.n	82ab4 <__sflush_r+0xd8>
   82a14:	6d2a      	ldr	r2, [r5, #80]	; 0x50
   82a16:	075f      	lsls	r7, r3, #29
   82a18:	d505      	bpl.n	82a26 <__sflush_r+0x4a>
   82a1a:	6869      	ldr	r1, [r5, #4]
   82a1c:	6b2b      	ldr	r3, [r5, #48]	; 0x30
   82a1e:	1a52      	subs	r2, r2, r1
   82a20:	b10b      	cbz	r3, 82a26 <__sflush_r+0x4a>
   82a22:	6beb      	ldr	r3, [r5, #60]	; 0x3c
   82a24:	1ad2      	subs	r2, r2, r3
   82a26:	4640      	mov	r0, r8
   82a28:	69e9      	ldr	r1, [r5, #28]
   82a2a:	2300      	movs	r3, #0
   82a2c:	47a0      	blx	r4
   82a2e:	1c44      	adds	r4, r0, #1
   82a30:	d04a      	beq.n	82ac8 <__sflush_r+0xec>
   82a32:	89ab      	ldrh	r3, [r5, #12]
   82a34:	692a      	ldr	r2, [r5, #16]
   82a36:	f423 6300 	bic.w	r3, r3, #2048	; 0x800
   82a3a:	b29b      	uxth	r3, r3
   82a3c:	2100      	movs	r1, #0
   82a3e:	602a      	str	r2, [r5, #0]
   82a40:	04da      	lsls	r2, r3, #19
   82a42:	81ab      	strh	r3, [r5, #12]
   82a44:	6069      	str	r1, [r5, #4]
   82a46:	d44c      	bmi.n	82ae2 <__sflush_r+0x106>
   82a48:	6b29      	ldr	r1, [r5, #48]	; 0x30
   82a4a:	f8c8 6000 	str.w	r6, [r8]
   82a4e:	b311      	cbz	r1, 82a96 <__sflush_r+0xba>
   82a50:	f105 0340 	add.w	r3, r5, #64	; 0x40
   82a54:	4299      	cmp	r1, r3
   82a56:	d002      	beq.n	82a5e <__sflush_r+0x82>
   82a58:	4640      	mov	r0, r8
   82a5a:	f000 f9c3 	bl	82de4 <_free_r>
   82a5e:	2000      	movs	r0, #0
   82a60:	6328      	str	r0, [r5, #48]	; 0x30
   82a62:	e8bd 81f0 	ldmia.w	sp!, {r4, r5, r6, r7, r8, pc}
   82a66:	692e      	ldr	r6, [r5, #16]
   82a68:	b1ae      	cbz	r6, 82a96 <__sflush_r+0xba>
   82a6a:	0791      	lsls	r1, r2, #30
   82a6c:	682c      	ldr	r4, [r5, #0]
   82a6e:	bf0c      	ite	eq
   82a70:	696b      	ldreq	r3, [r5, #20]
   82a72:	2300      	movne	r3, #0
   82a74:	602e      	str	r6, [r5, #0]
   82a76:	1ba4      	subs	r4, r4, r6
   82a78:	60ab      	str	r3, [r5, #8]
   82a7a:	e00a      	b.n	82a92 <__sflush_r+0xb6>
   82a7c:	4632      	mov	r2, r6
   82a7e:	4623      	mov	r3, r4
   82a80:	6a6f      	ldr	r7, [r5, #36]	; 0x24
   82a82:	4640      	mov	r0, r8
   82a84:	69e9      	ldr	r1, [r5, #28]
   82a86:	47b8      	blx	r7
   82a88:	2800      	cmp	r0, #0
   82a8a:	ebc0 0404 	rsb	r4, r0, r4
   82a8e:	4406      	add	r6, r0
   82a90:	dd04      	ble.n	82a9c <__sflush_r+0xc0>
   82a92:	2c00      	cmp	r4, #0
   82a94:	dcf2      	bgt.n	82a7c <__sflush_r+0xa0>
   82a96:	2000      	movs	r0, #0
   82a98:	e8bd 81f0 	ldmia.w	sp!, {r4, r5, r6, r7, r8, pc}
   82a9c:	89ab      	ldrh	r3, [r5, #12]
   82a9e:	f04f 30ff 	mov.w	r0, #4294967295	; 0xffffffff
   82aa2:	f043 0340 	orr.w	r3, r3, #64	; 0x40
   82aa6:	81ab      	strh	r3, [r5, #12]
   82aa8:	e8bd 81f0 	ldmia.w	sp!, {r4, r5, r6, r7, r8, pc}
   82aac:	6bea      	ldr	r2, [r5, #60]	; 0x3c
   82aae:	2a00      	cmp	r2, #0
   82ab0:	dca2      	bgt.n	829f8 <__sflush_r+0x1c>
   82ab2:	e7f0      	b.n	82a96 <__sflush_r+0xba>
   82ab4:	2301      	movs	r3, #1
   82ab6:	4640      	mov	r0, r8
   82ab8:	69e9      	ldr	r1, [r5, #28]
   82aba:	47a0      	blx	r4
   82abc:	1c43      	adds	r3, r0, #1
   82abe:	4602      	mov	r2, r0
   82ac0:	d01e      	beq.n	82b00 <__sflush_r+0x124>
   82ac2:	89ab      	ldrh	r3, [r5, #12]
   82ac4:	6aac      	ldr	r4, [r5, #40]	; 0x28
   82ac6:	e7a6      	b.n	82a16 <__sflush_r+0x3a>
   82ac8:	f8d8 3000 	ldr.w	r3, [r8]
   82acc:	b95b      	cbnz	r3, 82ae6 <__sflush_r+0x10a>
   82ace:	89aa      	ldrh	r2, [r5, #12]
   82ad0:	6929      	ldr	r1, [r5, #16]
   82ad2:	f422 6200 	bic.w	r2, r2, #2048	; 0x800
   82ad6:	b292      	uxth	r2, r2
   82ad8:	606b      	str	r3, [r5, #4]
   82ada:	04d3      	lsls	r3, r2, #19
   82adc:	81aa      	strh	r2, [r5, #12]
   82ade:	6029      	str	r1, [r5, #0]
   82ae0:	d5b2      	bpl.n	82a48 <__sflush_r+0x6c>
   82ae2:	6528      	str	r0, [r5, #80]	; 0x50
   82ae4:	e7b0      	b.n	82a48 <__sflush_r+0x6c>
   82ae6:	2b1d      	cmp	r3, #29
   82ae8:	d001      	beq.n	82aee <__sflush_r+0x112>
   82aea:	2b16      	cmp	r3, #22
   82aec:	d113      	bne.n	82b16 <__sflush_r+0x13a>
   82aee:	89a9      	ldrh	r1, [r5, #12]
   82af0:	692b      	ldr	r3, [r5, #16]
   82af2:	f421 6100 	bic.w	r1, r1, #2048	; 0x800
   82af6:	2200      	movs	r2, #0
   82af8:	81a9      	strh	r1, [r5, #12]
   82afa:	602b      	str	r3, [r5, #0]
   82afc:	606a      	str	r2, [r5, #4]
   82afe:	e7a3      	b.n	82a48 <__sflush_r+0x6c>
   82b00:	f8d8 3000 	ldr.w	r3, [r8]
   82b04:	2b00      	cmp	r3, #0
   82b06:	d0dc      	beq.n	82ac2 <__sflush_r+0xe6>
   82b08:	2b1d      	cmp	r3, #29
   82b0a:	d001      	beq.n	82b10 <__sflush_r+0x134>
   82b0c:	2b16      	cmp	r3, #22
   82b0e:	d1c5      	bne.n	82a9c <__sflush_r+0xc0>
   82b10:	f8c8 6000 	str.w	r6, [r8]
   82b14:	e7bf      	b.n	82a96 <__sflush_r+0xba>
   82b16:	89ab      	ldrh	r3, [r5, #12]
   82b18:	f043 0340 	orr.w	r3, r3, #64	; 0x40
   82b1c:	81ab      	strh	r3, [r5, #12]
   82b1e:	e8bd 81f0 	ldmia.w	sp!, {r4, r5, r6, r7, r8, pc}
   82b22:	bf00      	nop

00082b24 <_fflush_r>:
   82b24:	b510      	push	{r4, lr}
   82b26:	4604      	mov	r4, r0
   82b28:	b082      	sub	sp, #8
   82b2a:	b108      	cbz	r0, 82b30 <_fflush_r+0xc>
   82b2c:	6b83      	ldr	r3, [r0, #56]	; 0x38
   82b2e:	b153      	cbz	r3, 82b46 <_fflush_r+0x22>
   82b30:	f9b1 000c 	ldrsh.w	r0, [r1, #12]
   82b34:	b908      	cbnz	r0, 82b3a <_fflush_r+0x16>
   82b36:	b002      	add	sp, #8
   82b38:	bd10      	pop	{r4, pc}
   82b3a:	4620      	mov	r0, r4
   82b3c:	b002      	add	sp, #8
   82b3e:	e8bd 4010 	ldmia.w	sp!, {r4, lr}
   82b42:	f7ff bf4b 	b.w	829dc <__sflush_r>
   82b46:	9101      	str	r1, [sp, #4]
   82b48:	f000 f808 	bl	82b5c <__sinit>
   82b4c:	9901      	ldr	r1, [sp, #4]
   82b4e:	e7ef      	b.n	82b30 <_fflush_r+0xc>

00082b50 <_cleanup_r>:
   82b50:	4901      	ldr	r1, [pc, #4]	; (82b58 <_cleanup_r+0x8>)
   82b52:	f000 bb9d 	b.w	83290 <_fwalk>
   82b56:	bf00      	nop
   82b58:	00084271 	andeq	r4, r8, r1, ror r2

00082b5c <__sinit>:
   82b5c:	e92d 4ff0 	stmdb	sp!, {r4, r5, r6, r7, r8, r9, sl, fp, lr}
   82b60:	6b84      	ldr	r4, [r0, #56]	; 0x38
   82b62:	b083      	sub	sp, #12
   82b64:	4607      	mov	r7, r0
   82b66:	2c00      	cmp	r4, #0
   82b68:	d165      	bne.n	82c36 <__sinit+0xda>
   82b6a:	687d      	ldr	r5, [r7, #4]
   82b6c:	4833      	ldr	r0, [pc, #204]	; (82c3c <__sinit+0xe0>)
   82b6e:	2304      	movs	r3, #4
   82b70:	2103      	movs	r1, #3
   82b72:	f507 723b 	add.w	r2, r7, #748	; 0x2ec
   82b76:	63f8      	str	r0, [r7, #60]	; 0x3c
   82b78:	f8c7 12e4 	str.w	r1, [r7, #740]	; 0x2e4
   82b7c:	f8c7 22e8 	str.w	r2, [r7, #744]	; 0x2e8
   82b80:	f8c7 42e0 	str.w	r4, [r7, #736]	; 0x2e0
   82b84:	f105 005c 	add.w	r0, r5, #92	; 0x5c
   82b88:	81ab      	strh	r3, [r5, #12]
   82b8a:	602c      	str	r4, [r5, #0]
   82b8c:	606c      	str	r4, [r5, #4]
   82b8e:	60ac      	str	r4, [r5, #8]
   82b90:	666c      	str	r4, [r5, #100]	; 0x64
   82b92:	81ec      	strh	r4, [r5, #14]
   82b94:	612c      	str	r4, [r5, #16]
   82b96:	616c      	str	r4, [r5, #20]
   82b98:	61ac      	str	r4, [r5, #24]
   82b9a:	4621      	mov	r1, r4
   82b9c:	2208      	movs	r2, #8
   82b9e:	f7fe ff85 	bl	81aac <memset>
   82ba2:	f8df b09c 	ldr.w	fp, [pc, #156]	; 82c40 <__sinit+0xe4>
   82ba6:	68be      	ldr	r6, [r7, #8]
   82ba8:	f8df a098 	ldr.w	sl, [pc, #152]	; 82c44 <__sinit+0xe8>
   82bac:	f8df 9098 	ldr.w	r9, [pc, #152]	; 82c48 <__sinit+0xec>
   82bb0:	f8df 8098 	ldr.w	r8, [pc, #152]	; 82c4c <__sinit+0xf0>
   82bb4:	2301      	movs	r3, #1
   82bb6:	2209      	movs	r2, #9
   82bb8:	61ed      	str	r5, [r5, #28]
   82bba:	f8c5 b020 	str.w	fp, [r5, #32]
   82bbe:	f8c5 a024 	str.w	sl, [r5, #36]	; 0x24
   82bc2:	f8c5 9028 	str.w	r9, [r5, #40]	; 0x28
   82bc6:	f8c5 802c 	str.w	r8, [r5, #44]	; 0x2c
   82bca:	4621      	mov	r1, r4
   82bcc:	81f3      	strh	r3, [r6, #14]
   82bce:	81b2      	strh	r2, [r6, #12]
   82bd0:	6034      	str	r4, [r6, #0]
   82bd2:	6074      	str	r4, [r6, #4]
   82bd4:	60b4      	str	r4, [r6, #8]
   82bd6:	6674      	str	r4, [r6, #100]	; 0x64
   82bd8:	6134      	str	r4, [r6, #16]
   82bda:	6174      	str	r4, [r6, #20]
   82bdc:	61b4      	str	r4, [r6, #24]
   82bde:	2208      	movs	r2, #8
   82be0:	f106 005c 	add.w	r0, r6, #92	; 0x5c
   82be4:	9301      	str	r3, [sp, #4]
   82be6:	f7fe ff61 	bl	81aac <memset>
   82bea:	68fd      	ldr	r5, [r7, #12]
   82bec:	2012      	movs	r0, #18
   82bee:	2202      	movs	r2, #2
   82bf0:	61f6      	str	r6, [r6, #28]
   82bf2:	f8c6 b020 	str.w	fp, [r6, #32]
   82bf6:	f8c6 a024 	str.w	sl, [r6, #36]	; 0x24
   82bfa:	f8c6 9028 	str.w	r9, [r6, #40]	; 0x28
   82bfe:	f8c6 802c 	str.w	r8, [r6, #44]	; 0x2c
   82c02:	4621      	mov	r1, r4
   82c04:	81a8      	strh	r0, [r5, #12]
   82c06:	81ea      	strh	r2, [r5, #14]
   82c08:	602c      	str	r4, [r5, #0]
   82c0a:	606c      	str	r4, [r5, #4]
   82c0c:	60ac      	str	r4, [r5, #8]
   82c0e:	666c      	str	r4, [r5, #100]	; 0x64
   82c10:	612c      	str	r4, [r5, #16]
   82c12:	616c      	str	r4, [r5, #20]
   82c14:	61ac      	str	r4, [r5, #24]
   82c16:	f105 005c 	add.w	r0, r5, #92	; 0x5c
   82c1a:	2208      	movs	r2, #8
   82c1c:	f7fe ff46 	bl	81aac <memset>
   82c20:	9b01      	ldr	r3, [sp, #4]
   82c22:	61ed      	str	r5, [r5, #28]
   82c24:	f8c5 b020 	str.w	fp, [r5, #32]
   82c28:	f8c5 a024 	str.w	sl, [r5, #36]	; 0x24
   82c2c:	f8c5 9028 	str.w	r9, [r5, #40]	; 0x28
   82c30:	f8c5 802c 	str.w	r8, [r5, #44]	; 0x2c
   82c34:	63bb      	str	r3, [r7, #56]	; 0x38
   82c36:	b003      	add	sp, #12
   82c38:	e8bd 8ff0 	ldmia.w	sp!, {r4, r5, r6, r7, r8, r9, sl, fp, pc}
   82c3c:	00082b51 	andeq	r2, r8, r1, asr fp
   82c40:	00083f65 	andeq	r3, r8, r5, ror #30
   82c44:	00083f89 	andeq	r3, r8, r9, lsl #31
   82c48:	00083fc1 	andeq	r3, r8, r1, asr #31
   82c4c:	00083fe1 	andeq	r3, r8, r1, ror #31

00082c50 <__sfp_lock_acquire>:
   82c50:	4770      	bx	lr
   82c52:	bf00      	nop

00082c54 <__sfp_lock_release>:
   82c54:	4770      	bx	lr
   82c56:	bf00      	nop

00082c58 <__libc_fini_array>:
   82c58:	b538      	push	{r3, r4, r5, lr}
   82c5a:	4d09      	ldr	r5, [pc, #36]	; (82c80 <__libc_fini_array+0x28>)
   82c5c:	4c09      	ldr	r4, [pc, #36]	; (82c84 <__libc_fini_array+0x2c>)
   82c5e:	1b64      	subs	r4, r4, r5
   82c60:	10a4      	asrs	r4, r4, #2
   82c62:	bf18      	it	ne
   82c64:	eb05 0584 	addne.w	r5, r5, r4, lsl #2
   82c68:	d005      	beq.n	82c76 <__libc_fini_array+0x1e>
   82c6a:	3c01      	subs	r4, #1
   82c6c:	f855 3d04 	ldr.w	r3, [r5, #-4]!
   82c70:	4798      	blx	r3
   82c72:	2c00      	cmp	r4, #0
   82c74:	d1f9      	bne.n	82c6a <__libc_fini_array+0x12>
   82c76:	e8bd 4038 	ldmia.w	sp!, {r3, r4, r5, lr}
   82c7a:	f002 bc79 	b.w	85570 <_fini>
   82c7e:	bf00      	nop
   82c80:	0008557c 	andeq	r5, r8, ip, ror r5
   82c84:	00085580 	andeq	r5, r8, r0, lsl #11

00082c88 <_fputwc_r>:
   82c88:	e92d 41f0 	stmdb	sp!, {r4, r5, r6, r7, r8, lr}
   82c8c:	8993      	ldrh	r3, [r2, #12]
   82c8e:	460f      	mov	r7, r1
   82c90:	0499      	lsls	r1, r3, #18
   82c92:	b082      	sub	sp, #8
   82c94:	4614      	mov	r4, r2
   82c96:	4680      	mov	r8, r0
   82c98:	d406      	bmi.n	82ca8 <_fputwc_r+0x20>
   82c9a:	6e52      	ldr	r2, [r2, #100]	; 0x64
   82c9c:	f443 5300 	orr.w	r3, r3, #8192	; 0x2000
   82ca0:	f442 5200 	orr.w	r2, r2, #8192	; 0x2000
   82ca4:	81a3      	strh	r3, [r4, #12]
   82ca6:	6662      	str	r2, [r4, #100]	; 0x64
   82ca8:	f000 fb1a 	bl	832e0 <__locale_mb_cur_max>
   82cac:	2801      	cmp	r0, #1
   82cae:	d03e      	beq.n	82d2e <_fputwc_r+0xa6>
   82cb0:	463a      	mov	r2, r7
   82cb2:	4640      	mov	r0, r8
   82cb4:	a901      	add	r1, sp, #4
   82cb6:	f104 035c 	add.w	r3, r4, #92	; 0x5c
   82cba:	f001 f9e9 	bl	84090 <_wcrtomb_r>
   82cbe:	1c42      	adds	r2, r0, #1
   82cc0:	4606      	mov	r6, r0
   82cc2:	d02d      	beq.n	82d20 <_fputwc_r+0x98>
   82cc4:	2800      	cmp	r0, #0
   82cc6:	d03a      	beq.n	82d3e <_fputwc_r+0xb6>
   82cc8:	f89d 1004 	ldrb.w	r1, [sp, #4]
   82ccc:	2500      	movs	r5, #0
   82cce:	e009      	b.n	82ce4 <_fputwc_r+0x5c>
   82cd0:	6823      	ldr	r3, [r4, #0]
   82cd2:	7019      	strb	r1, [r3, #0]
   82cd4:	6823      	ldr	r3, [r4, #0]
   82cd6:	3301      	adds	r3, #1
   82cd8:	6023      	str	r3, [r4, #0]
   82cda:	3501      	adds	r5, #1
   82cdc:	42b5      	cmp	r5, r6
   82cde:	d22e      	bcs.n	82d3e <_fputwc_r+0xb6>
   82ce0:	ab01      	add	r3, sp, #4
   82ce2:	5ce9      	ldrb	r1, [r5, r3]
   82ce4:	68a3      	ldr	r3, [r4, #8]
   82ce6:	3b01      	subs	r3, #1
   82ce8:	2b00      	cmp	r3, #0
   82cea:	60a3      	str	r3, [r4, #8]
   82cec:	daf0      	bge.n	82cd0 <_fputwc_r+0x48>
   82cee:	69a2      	ldr	r2, [r4, #24]
   82cf0:	4293      	cmp	r3, r2
   82cf2:	db06      	blt.n	82d02 <_fputwc_r+0x7a>
   82cf4:	6823      	ldr	r3, [r4, #0]
   82cf6:	7019      	strb	r1, [r3, #0]
   82cf8:	6823      	ldr	r3, [r4, #0]
   82cfa:	7819      	ldrb	r1, [r3, #0]
   82cfc:	3301      	adds	r3, #1
   82cfe:	290a      	cmp	r1, #10
   82d00:	d1ea      	bne.n	82cd8 <_fputwc_r+0x50>
   82d02:	4640      	mov	r0, r8
   82d04:	4622      	mov	r2, r4
   82d06:	f001 f96f 	bl	83fe8 <__swbuf_r>
   82d0a:	f1b0 33ff 	subs.w	r3, r0, #4294967295	; 0xffffffff
   82d0e:	4258      	negs	r0, r3
   82d10:	4158      	adcs	r0, r3
   82d12:	2800      	cmp	r0, #0
   82d14:	d0e1      	beq.n	82cda <_fputwc_r+0x52>
   82d16:	f04f 30ff 	mov.w	r0, #4294967295	; 0xffffffff
   82d1a:	b002      	add	sp, #8
   82d1c:	e8bd 81f0 	ldmia.w	sp!, {r4, r5, r6, r7, r8, pc}
   82d20:	89a3      	ldrh	r3, [r4, #12]
   82d22:	f043 0340 	orr.w	r3, r3, #64	; 0x40
   82d26:	81a3      	strh	r3, [r4, #12]
   82d28:	b002      	add	sp, #8
   82d2a:	e8bd 81f0 	ldmia.w	sp!, {r4, r5, r6, r7, r8, pc}
   82d2e:	1e7b      	subs	r3, r7, #1
   82d30:	2bfe      	cmp	r3, #254	; 0xfe
   82d32:	d8bd      	bhi.n	82cb0 <_fputwc_r+0x28>
   82d34:	b2f9      	uxtb	r1, r7
   82d36:	4606      	mov	r6, r0
   82d38:	f88d 1004 	strb.w	r1, [sp, #4]
   82d3c:	e7c6      	b.n	82ccc <_fputwc_r+0x44>
   82d3e:	4638      	mov	r0, r7
   82d40:	b002      	add	sp, #8
   82d42:	e8bd 81f0 	ldmia.w	sp!, {r4, r5, r6, r7, r8, pc}
   82d46:	bf00      	nop

00082d48 <_malloc_trim_r>:
   82d48:	b5f8      	push	{r3, r4, r5, r6, r7, lr}
   82d4a:	4d23      	ldr	r5, [pc, #140]	; (82dd8 <_malloc_trim_r+0x90>)
   82d4c:	460f      	mov	r7, r1
   82d4e:	4604      	mov	r4, r0
   82d50:	f000 fefe 	bl	83b50 <__malloc_lock>
   82d54:	68ab      	ldr	r3, [r5, #8]
   82d56:	685e      	ldr	r6, [r3, #4]
   82d58:	f026 0603 	bic.w	r6, r6, #3
   82d5c:	1bf1      	subs	r1, r6, r7
   82d5e:	f601 71ef 	addw	r1, r1, #4079	; 0xfef
   82d62:	f421 617f 	bic.w	r1, r1, #4080	; 0xff0
   82d66:	f021 010f 	bic.w	r1, r1, #15
   82d6a:	f5a1 5780 	sub.w	r7, r1, #4096	; 0x1000
   82d6e:	f5b7 5f80 	cmp.w	r7, #4096	; 0x1000
   82d72:	db07      	blt.n	82d84 <_malloc_trim_r+0x3c>
   82d74:	4620      	mov	r0, r4
   82d76:	2100      	movs	r1, #0
   82d78:	f001 f8ce 	bl	83f18 <_sbrk_r>
   82d7c:	68ab      	ldr	r3, [r5, #8]
   82d7e:	4433      	add	r3, r6
   82d80:	4298      	cmp	r0, r3
   82d82:	d004      	beq.n	82d8e <_malloc_trim_r+0x46>
   82d84:	4620      	mov	r0, r4
   82d86:	f000 fee5 	bl	83b54 <__malloc_unlock>
   82d8a:	2000      	movs	r0, #0
   82d8c:	bdf8      	pop	{r3, r4, r5, r6, r7, pc}
   82d8e:	4620      	mov	r0, r4
   82d90:	4279      	negs	r1, r7
   82d92:	f001 f8c1 	bl	83f18 <_sbrk_r>
   82d96:	3001      	adds	r0, #1
   82d98:	d00d      	beq.n	82db6 <_malloc_trim_r+0x6e>
   82d9a:	4b10      	ldr	r3, [pc, #64]	; (82ddc <_malloc_trim_r+0x94>)
   82d9c:	68aa      	ldr	r2, [r5, #8]
   82d9e:	6819      	ldr	r1, [r3, #0]
   82da0:	1bf6      	subs	r6, r6, r7
   82da2:	f046 0601 	orr.w	r6, r6, #1
   82da6:	4620      	mov	r0, r4
   82da8:	1bc9      	subs	r1, r1, r7
   82daa:	6056      	str	r6, [r2, #4]
   82dac:	6019      	str	r1, [r3, #0]
   82dae:	f000 fed1 	bl	83b54 <__malloc_unlock>
   82db2:	2001      	movs	r0, #1
   82db4:	bdf8      	pop	{r3, r4, r5, r6, r7, pc}
   82db6:	4620      	mov	r0, r4
   82db8:	2100      	movs	r1, #0
   82dba:	f001 f8ad 	bl	83f18 <_sbrk_r>
   82dbe:	68ab      	ldr	r3, [r5, #8]
   82dc0:	1ac2      	subs	r2, r0, r3
   82dc2:	2a0f      	cmp	r2, #15
   82dc4:	ddde      	ble.n	82d84 <_malloc_trim_r+0x3c>
   82dc6:	4d06      	ldr	r5, [pc, #24]	; (82de0 <_malloc_trim_r+0x98>)
   82dc8:	4904      	ldr	r1, [pc, #16]	; (82ddc <_malloc_trim_r+0x94>)
   82dca:	682d      	ldr	r5, [r5, #0]
   82dcc:	f042 0201 	orr.w	r2, r2, #1
   82dd0:	1b40      	subs	r0, r0, r5
   82dd2:	605a      	str	r2, [r3, #4]
   82dd4:	6008      	str	r0, [r1, #0]
   82dd6:	e7d5      	b.n	82d84 <_malloc_trim_r+0x3c>
   82dd8:	200704c0 	andcs	r0, r7, r0, asr #9
   82ddc:	200710d0 	ldrdcs	r1, [r7], -r0
   82de0:	200708cc 	andcs	r0, r7, ip, asr #17

00082de4 <_free_r>:
   82de4:	e92d 41f0 	stmdb	sp!, {r4, r5, r6, r7, r8, lr}
   82de8:	460d      	mov	r5, r1
   82dea:	4606      	mov	r6, r0
   82dec:	2900      	cmp	r1, #0
   82dee:	d055      	beq.n	82e9c <_free_r+0xb8>
   82df0:	f000 feae 	bl	83b50 <__malloc_lock>
   82df4:	f855 1c04 	ldr.w	r1, [r5, #-4]
   82df8:	f8df c170 	ldr.w	ip, [pc, #368]	; 82f6c <_free_r+0x188>
   82dfc:	f1a5 0408 	sub.w	r4, r5, #8
   82e00:	f021 0301 	bic.w	r3, r1, #1
   82e04:	18e2      	adds	r2, r4, r3
   82e06:	f8dc 0008 	ldr.w	r0, [ip, #8]
   82e0a:	6857      	ldr	r7, [r2, #4]
   82e0c:	4290      	cmp	r0, r2
   82e0e:	f027 0703 	bic.w	r7, r7, #3
   82e12:	d068      	beq.n	82ee6 <_free_r+0x102>
   82e14:	f011 0101 	ands.w	r1, r1, #1
   82e18:	6057      	str	r7, [r2, #4]
   82e1a:	d032      	beq.n	82e82 <_free_r+0x9e>
   82e1c:	2100      	movs	r1, #0
   82e1e:	19d0      	adds	r0, r2, r7
   82e20:	6840      	ldr	r0, [r0, #4]
   82e22:	07c0      	lsls	r0, r0, #31
   82e24:	d406      	bmi.n	82e34 <_free_r+0x50>
   82e26:	443b      	add	r3, r7
   82e28:	6890      	ldr	r0, [r2, #8]
   82e2a:	2900      	cmp	r1, #0
   82e2c:	d04d      	beq.n	82eca <_free_r+0xe6>
   82e2e:	68d2      	ldr	r2, [r2, #12]
   82e30:	60c2      	str	r2, [r0, #12]
   82e32:	6090      	str	r0, [r2, #8]
   82e34:	f043 0201 	orr.w	r2, r3, #1
   82e38:	6062      	str	r2, [r4, #4]
   82e3a:	50e3      	str	r3, [r4, r3]
   82e3c:	b9e1      	cbnz	r1, 82e78 <_free_r+0x94>
   82e3e:	f5b3 7f00 	cmp.w	r3, #512	; 0x200
   82e42:	d32d      	bcc.n	82ea0 <_free_r+0xbc>
   82e44:	0a5a      	lsrs	r2, r3, #9
   82e46:	2a04      	cmp	r2, #4
   82e48:	d869      	bhi.n	82f1e <_free_r+0x13a>
   82e4a:	0998      	lsrs	r0, r3, #6
   82e4c:	3038      	adds	r0, #56	; 0x38
   82e4e:	0041      	lsls	r1, r0, #1
   82e50:	eb0c 0c81 	add.w	ip, ip, r1, lsl #2
   82e54:	f8dc 2008 	ldr.w	r2, [ip, #8]
   82e58:	4944      	ldr	r1, [pc, #272]	; (82f6c <_free_r+0x188>)
   82e5a:	4562      	cmp	r2, ip
   82e5c:	d065      	beq.n	82f2a <_free_r+0x146>
   82e5e:	6851      	ldr	r1, [r2, #4]
   82e60:	f021 0103 	bic.w	r1, r1, #3
   82e64:	428b      	cmp	r3, r1
   82e66:	d202      	bcs.n	82e6e <_free_r+0x8a>
   82e68:	6892      	ldr	r2, [r2, #8]
   82e6a:	4594      	cmp	ip, r2
   82e6c:	d1f7      	bne.n	82e5e <_free_r+0x7a>
   82e6e:	68d3      	ldr	r3, [r2, #12]
   82e70:	60e3      	str	r3, [r4, #12]
   82e72:	60a2      	str	r2, [r4, #8]
   82e74:	609c      	str	r4, [r3, #8]
   82e76:	60d4      	str	r4, [r2, #12]
   82e78:	4630      	mov	r0, r6
   82e7a:	e8bd 41f0 	ldmia.w	sp!, {r4, r5, r6, r7, r8, lr}
   82e7e:	f000 be69 	b.w	83b54 <__malloc_unlock>
   82e82:	f855 5c08 	ldr.w	r5, [r5, #-8]
   82e86:	f10c 0808 	add.w	r8, ip, #8
   82e8a:	1b64      	subs	r4, r4, r5
   82e8c:	68a0      	ldr	r0, [r4, #8]
   82e8e:	442b      	add	r3, r5
   82e90:	4540      	cmp	r0, r8
   82e92:	d042      	beq.n	82f1a <_free_r+0x136>
   82e94:	68e5      	ldr	r5, [r4, #12]
   82e96:	60c5      	str	r5, [r0, #12]
   82e98:	60a8      	str	r0, [r5, #8]
   82e9a:	e7c0      	b.n	82e1e <_free_r+0x3a>
   82e9c:	e8bd 81f0 	ldmia.w	sp!, {r4, r5, r6, r7, r8, pc}
   82ea0:	08db      	lsrs	r3, r3, #3
   82ea2:	109a      	asrs	r2, r3, #2
   82ea4:	2001      	movs	r0, #1
   82ea6:	4090      	lsls	r0, r2
   82ea8:	f8dc 1004 	ldr.w	r1, [ip, #4]
   82eac:	eb0c 03c3 	add.w	r3, ip, r3, lsl #3
   82eb0:	689a      	ldr	r2, [r3, #8]
   82eb2:	4301      	orrs	r1, r0
   82eb4:	60a2      	str	r2, [r4, #8]
   82eb6:	60e3      	str	r3, [r4, #12]
   82eb8:	f8cc 1004 	str.w	r1, [ip, #4]
   82ebc:	4630      	mov	r0, r6
   82ebe:	609c      	str	r4, [r3, #8]
   82ec0:	60d4      	str	r4, [r2, #12]
   82ec2:	e8bd 41f0 	ldmia.w	sp!, {r4, r5, r6, r7, r8, lr}
   82ec6:	f000 be45 	b.w	83b54 <__malloc_unlock>
   82eca:	4d29      	ldr	r5, [pc, #164]	; (82f70 <_free_r+0x18c>)
   82ecc:	42a8      	cmp	r0, r5
   82ece:	d1ae      	bne.n	82e2e <_free_r+0x4a>
   82ed0:	f043 0201 	orr.w	r2, r3, #1
   82ed4:	f8cc 4014 	str.w	r4, [ip, #20]
   82ed8:	f8cc 4010 	str.w	r4, [ip, #16]
   82edc:	60e0      	str	r0, [r4, #12]
   82ede:	60a0      	str	r0, [r4, #8]
   82ee0:	6062      	str	r2, [r4, #4]
   82ee2:	50e3      	str	r3, [r4, r3]
   82ee4:	e7c8      	b.n	82e78 <_free_r+0x94>
   82ee6:	441f      	add	r7, r3
   82ee8:	07cb      	lsls	r3, r1, #31
   82eea:	d407      	bmi.n	82efc <_free_r+0x118>
   82eec:	f855 1c08 	ldr.w	r1, [r5, #-8]
   82ef0:	1a64      	subs	r4, r4, r1
   82ef2:	68e3      	ldr	r3, [r4, #12]
   82ef4:	68a2      	ldr	r2, [r4, #8]
   82ef6:	440f      	add	r7, r1
   82ef8:	60d3      	str	r3, [r2, #12]
   82efa:	609a      	str	r2, [r3, #8]
   82efc:	4b1d      	ldr	r3, [pc, #116]	; (82f74 <_free_r+0x190>)
   82efe:	f047 0201 	orr.w	r2, r7, #1
   82f02:	681b      	ldr	r3, [r3, #0]
   82f04:	6062      	str	r2, [r4, #4]
   82f06:	429f      	cmp	r7, r3
   82f08:	f8cc 4008 	str.w	r4, [ip, #8]
   82f0c:	d3b4      	bcc.n	82e78 <_free_r+0x94>
   82f0e:	4b1a      	ldr	r3, [pc, #104]	; (82f78 <_free_r+0x194>)
   82f10:	4630      	mov	r0, r6
   82f12:	6819      	ldr	r1, [r3, #0]
   82f14:	f7ff ff18 	bl	82d48 <_malloc_trim_r>
   82f18:	e7ae      	b.n	82e78 <_free_r+0x94>
   82f1a:	2101      	movs	r1, #1
   82f1c:	e77f      	b.n	82e1e <_free_r+0x3a>
   82f1e:	2a14      	cmp	r2, #20
   82f20:	d80b      	bhi.n	82f3a <_free_r+0x156>
   82f22:	f102 005b 	add.w	r0, r2, #91	; 0x5b
   82f26:	0041      	lsls	r1, r0, #1
   82f28:	e792      	b.n	82e50 <_free_r+0x6c>
   82f2a:	1080      	asrs	r0, r0, #2
   82f2c:	2501      	movs	r5, #1
   82f2e:	4085      	lsls	r5, r0
   82f30:	6848      	ldr	r0, [r1, #4]
   82f32:	4613      	mov	r3, r2
   82f34:	4328      	orrs	r0, r5
   82f36:	6048      	str	r0, [r1, #4]
   82f38:	e79a      	b.n	82e70 <_free_r+0x8c>
   82f3a:	2a54      	cmp	r2, #84	; 0x54
   82f3c:	d803      	bhi.n	82f46 <_free_r+0x162>
   82f3e:	0b18      	lsrs	r0, r3, #12
   82f40:	306e      	adds	r0, #110	; 0x6e
   82f42:	0041      	lsls	r1, r0, #1
   82f44:	e784      	b.n	82e50 <_free_r+0x6c>
   82f46:	f5b2 7faa 	cmp.w	r2, #340	; 0x154
   82f4a:	d803      	bhi.n	82f54 <_free_r+0x170>
   82f4c:	0bd8      	lsrs	r0, r3, #15
   82f4e:	3077      	adds	r0, #119	; 0x77
   82f50:	0041      	lsls	r1, r0, #1
   82f52:	e77d      	b.n	82e50 <_free_r+0x6c>
   82f54:	f240 5154 	movw	r1, #1364	; 0x554
   82f58:	428a      	cmp	r2, r1
   82f5a:	d803      	bhi.n	82f64 <_free_r+0x180>
   82f5c:	0c98      	lsrs	r0, r3, #18
   82f5e:	307c      	adds	r0, #124	; 0x7c
   82f60:	0041      	lsls	r1, r0, #1
   82f62:	e775      	b.n	82e50 <_free_r+0x6c>
   82f64:	21fc      	movs	r1, #252	; 0xfc
   82f66:	207e      	movs	r0, #126	; 0x7e
   82f68:	e772      	b.n	82e50 <_free_r+0x6c>
   82f6a:	bf00      	nop
   82f6c:	200704c0 	andcs	r0, r7, r0, asr #9
   82f70:	200704c8 	andcs	r0, r7, r8, asr #9
   82f74:	200708c8 	andcs	r0, r7, r8, asr #17
   82f78:	200710cc 	andcs	r1, r7, ip, asr #1

00082f7c <__sfvwrite_r>:
   82f7c:	e92d 4ff0 	stmdb	sp!, {r4, r5, r6, r7, r8, r9, sl, fp, lr}
   82f80:	6893      	ldr	r3, [r2, #8]
   82f82:	b083      	sub	sp, #12
   82f84:	4616      	mov	r6, r2
   82f86:	4681      	mov	r9, r0
   82f88:	460c      	mov	r4, r1
   82f8a:	b32b      	cbz	r3, 82fd8 <__sfvwrite_r+0x5c>
   82f8c:	898b      	ldrh	r3, [r1, #12]
   82f8e:	0719      	lsls	r1, r3, #28
   82f90:	d526      	bpl.n	82fe0 <__sfvwrite_r+0x64>
   82f92:	6922      	ldr	r2, [r4, #16]
   82f94:	b322      	cbz	r2, 82fe0 <__sfvwrite_r+0x64>
   82f96:	f003 0202 	and.w	r2, r3, #2
   82f9a:	b292      	uxth	r2, r2
   82f9c:	6835      	ldr	r5, [r6, #0]
   82f9e:	2a00      	cmp	r2, #0
   82fa0:	d02c      	beq.n	82ffc <__sfvwrite_r+0x80>
   82fa2:	f04f 0a00 	mov.w	sl, #0
   82fa6:	f8df b2e4 	ldr.w	fp, [pc, #740]	; 8328c <__sfvwrite_r+0x310>
   82faa:	46d0      	mov	r8, sl
   82fac:	45d8      	cmp	r8, fp
   82fae:	bf34      	ite	cc
   82fb0:	4643      	movcc	r3, r8
   82fb2:	465b      	movcs	r3, fp
   82fb4:	4652      	mov	r2, sl
   82fb6:	4648      	mov	r0, r9
   82fb8:	f1b8 0f00 	cmp.w	r8, #0
   82fbc:	d04f      	beq.n	8305e <__sfvwrite_r+0xe2>
   82fbe:	69e1      	ldr	r1, [r4, #28]
   82fc0:	6a67      	ldr	r7, [r4, #36]	; 0x24
   82fc2:	47b8      	blx	r7
   82fc4:	2800      	cmp	r0, #0
   82fc6:	dd56      	ble.n	83076 <__sfvwrite_r+0xfa>
   82fc8:	68b3      	ldr	r3, [r6, #8]
   82fca:	4482      	add	sl, r0
   82fcc:	1a1b      	subs	r3, r3, r0
   82fce:	ebc0 0808 	rsb	r8, r0, r8
   82fd2:	60b3      	str	r3, [r6, #8]
   82fd4:	2b00      	cmp	r3, #0
   82fd6:	d1e9      	bne.n	82fac <__sfvwrite_r+0x30>
   82fd8:	2000      	movs	r0, #0
   82fda:	b003      	add	sp, #12
   82fdc:	e8bd 8ff0 	ldmia.w	sp!, {r4, r5, r6, r7, r8, r9, sl, fp, pc}
   82fe0:	4648      	mov	r0, r9
   82fe2:	4621      	mov	r1, r4
   82fe4:	f7ff fc88 	bl	828f8 <__swsetup_r>
   82fe8:	2800      	cmp	r0, #0
   82fea:	f040 8146 	bne.w	8327a <__sfvwrite_r+0x2fe>
   82fee:	89a3      	ldrh	r3, [r4, #12]
   82ff0:	6835      	ldr	r5, [r6, #0]
   82ff2:	f003 0202 	and.w	r2, r3, #2
   82ff6:	b292      	uxth	r2, r2
   82ff8:	2a00      	cmp	r2, #0
   82ffa:	d1d2      	bne.n	82fa2 <__sfvwrite_r+0x26>
   82ffc:	f013 0a01 	ands.w	sl, r3, #1
   83000:	d142      	bne.n	83088 <__sfvwrite_r+0x10c>
   83002:	46d0      	mov	r8, sl
   83004:	f1b8 0f00 	cmp.w	r8, #0
   83008:	d023      	beq.n	83052 <__sfvwrite_r+0xd6>
   8300a:	059a      	lsls	r2, r3, #22
   8300c:	68a7      	ldr	r7, [r4, #8]
   8300e:	d576      	bpl.n	830fe <__sfvwrite_r+0x182>
   83010:	45b8      	cmp	r8, r7
   83012:	f0c0 80a4 	bcc.w	8315e <__sfvwrite_r+0x1e2>
   83016:	f413 6f90 	tst.w	r3, #1152	; 0x480
   8301a:	f040 80b2 	bne.w	83182 <__sfvwrite_r+0x206>
   8301e:	6820      	ldr	r0, [r4, #0]
   83020:	46bb      	mov	fp, r7
   83022:	4651      	mov	r1, sl
   83024:	465a      	mov	r2, fp
   83026:	f000 fd2d 	bl	83a84 <memmove>
   8302a:	68a2      	ldr	r2, [r4, #8]
   8302c:	6821      	ldr	r1, [r4, #0]
   8302e:	1bd2      	subs	r2, r2, r7
   83030:	eb01 030b 	add.w	r3, r1, fp
   83034:	60a2      	str	r2, [r4, #8]
   83036:	6023      	str	r3, [r4, #0]
   83038:	4642      	mov	r2, r8
   8303a:	68b3      	ldr	r3, [r6, #8]
   8303c:	4492      	add	sl, r2
   8303e:	1a9b      	subs	r3, r3, r2
   83040:	ebc2 0808 	rsb	r8, r2, r8
   83044:	60b3      	str	r3, [r6, #8]
   83046:	2b00      	cmp	r3, #0
   83048:	d0c6      	beq.n	82fd8 <__sfvwrite_r+0x5c>
   8304a:	89a3      	ldrh	r3, [r4, #12]
   8304c:	f1b8 0f00 	cmp.w	r8, #0
   83050:	d1db      	bne.n	8300a <__sfvwrite_r+0x8e>
   83052:	f8d5 a000 	ldr.w	sl, [r5]
   83056:	f8d5 8004 	ldr.w	r8, [r5, #4]
   8305a:	3508      	adds	r5, #8
   8305c:	e7d2      	b.n	83004 <__sfvwrite_r+0x88>
   8305e:	f8d5 a000 	ldr.w	sl, [r5]
   83062:	f8d5 8004 	ldr.w	r8, [r5, #4]
   83066:	3508      	adds	r5, #8
   83068:	e7a0      	b.n	82fac <__sfvwrite_r+0x30>
   8306a:	4648      	mov	r0, r9
   8306c:	4621      	mov	r1, r4
   8306e:	f7ff fd59 	bl	82b24 <_fflush_r>
   83072:	2800      	cmp	r0, #0
   83074:	d059      	beq.n	8312a <__sfvwrite_r+0x1ae>
   83076:	89a3      	ldrh	r3, [r4, #12]
   83078:	f043 0340 	orr.w	r3, r3, #64	; 0x40
   8307c:	f04f 30ff 	mov.w	r0, #4294967295	; 0xffffffff
   83080:	81a3      	strh	r3, [r4, #12]
   83082:	b003      	add	sp, #12
   83084:	e8bd 8ff0 	ldmia.w	sp!, {r4, r5, r6, r7, r8, r9, sl, fp, pc}
   83088:	4692      	mov	sl, r2
   8308a:	9201      	str	r2, [sp, #4]
   8308c:	4693      	mov	fp, r2
   8308e:	4690      	mov	r8, r2
   83090:	f1b8 0f00 	cmp.w	r8, #0
   83094:	d02b      	beq.n	830ee <__sfvwrite_r+0x172>
   83096:	9f01      	ldr	r7, [sp, #4]
   83098:	2f00      	cmp	r7, #0
   8309a:	d064      	beq.n	83166 <__sfvwrite_r+0x1ea>
   8309c:	6820      	ldr	r0, [r4, #0]
   8309e:	6921      	ldr	r1, [r4, #16]
   830a0:	45c2      	cmp	sl, r8
   830a2:	bf34      	ite	cc
   830a4:	4653      	movcc	r3, sl
   830a6:	4643      	movcs	r3, r8
   830a8:	4288      	cmp	r0, r1
   830aa:	461f      	mov	r7, r3
   830ac:	f8d4 c008 	ldr.w	ip, [r4, #8]
   830b0:	6962      	ldr	r2, [r4, #20]
   830b2:	d903      	bls.n	830bc <__sfvwrite_r+0x140>
   830b4:	4494      	add	ip, r2
   830b6:	4563      	cmp	r3, ip
   830b8:	f300 80ae 	bgt.w	83218 <__sfvwrite_r+0x29c>
   830bc:	4293      	cmp	r3, r2
   830be:	db36      	blt.n	8312e <__sfvwrite_r+0x1b2>
   830c0:	4613      	mov	r3, r2
   830c2:	6a67      	ldr	r7, [r4, #36]	; 0x24
   830c4:	4648      	mov	r0, r9
   830c6:	69e1      	ldr	r1, [r4, #28]
   830c8:	465a      	mov	r2, fp
   830ca:	47b8      	blx	r7
   830cc:	1e07      	subs	r7, r0, #0
   830ce:	ddd2      	ble.n	83076 <__sfvwrite_r+0xfa>
   830d0:	ebba 0a07 	subs.w	sl, sl, r7
   830d4:	d03a      	beq.n	8314c <__sfvwrite_r+0x1d0>
   830d6:	68b3      	ldr	r3, [r6, #8]
   830d8:	44bb      	add	fp, r7
   830da:	1bdb      	subs	r3, r3, r7
   830dc:	ebc7 0808 	rsb	r8, r7, r8
   830e0:	60b3      	str	r3, [r6, #8]
   830e2:	2b00      	cmp	r3, #0
   830e4:	f43f af78 	beq.w	82fd8 <__sfvwrite_r+0x5c>
   830e8:	f1b8 0f00 	cmp.w	r8, #0
   830ec:	d1d3      	bne.n	83096 <__sfvwrite_r+0x11a>
   830ee:	2700      	movs	r7, #0
   830f0:	f8d5 b000 	ldr.w	fp, [r5]
   830f4:	f8d5 8004 	ldr.w	r8, [r5, #4]
   830f8:	9701      	str	r7, [sp, #4]
   830fa:	3508      	adds	r5, #8
   830fc:	e7c8      	b.n	83090 <__sfvwrite_r+0x114>
   830fe:	6820      	ldr	r0, [r4, #0]
   83100:	6923      	ldr	r3, [r4, #16]
   83102:	4298      	cmp	r0, r3
   83104:	d802      	bhi.n	8310c <__sfvwrite_r+0x190>
   83106:	6963      	ldr	r3, [r4, #20]
   83108:	4598      	cmp	r8, r3
   8310a:	d272      	bcs.n	831f2 <__sfvwrite_r+0x276>
   8310c:	45b8      	cmp	r8, r7
   8310e:	bf38      	it	cc
   83110:	4647      	movcc	r7, r8
   83112:	463a      	mov	r2, r7
   83114:	4651      	mov	r1, sl
   83116:	f000 fcb5 	bl	83a84 <memmove>
   8311a:	68a3      	ldr	r3, [r4, #8]
   8311c:	6822      	ldr	r2, [r4, #0]
   8311e:	1bdb      	subs	r3, r3, r7
   83120:	443a      	add	r2, r7
   83122:	60a3      	str	r3, [r4, #8]
   83124:	6022      	str	r2, [r4, #0]
   83126:	2b00      	cmp	r3, #0
   83128:	d09f      	beq.n	8306a <__sfvwrite_r+0xee>
   8312a:	463a      	mov	r2, r7
   8312c:	e785      	b.n	8303a <__sfvwrite_r+0xbe>
   8312e:	461a      	mov	r2, r3
   83130:	4659      	mov	r1, fp
   83132:	9300      	str	r3, [sp, #0]
   83134:	f000 fca6 	bl	83a84 <memmove>
   83138:	9b00      	ldr	r3, [sp, #0]
   8313a:	68a1      	ldr	r1, [r4, #8]
   8313c:	6822      	ldr	r2, [r4, #0]
   8313e:	1ac9      	subs	r1, r1, r3
   83140:	ebba 0a07 	subs.w	sl, sl, r7
   83144:	4413      	add	r3, r2
   83146:	60a1      	str	r1, [r4, #8]
   83148:	6023      	str	r3, [r4, #0]
   8314a:	d1c4      	bne.n	830d6 <__sfvwrite_r+0x15a>
   8314c:	4648      	mov	r0, r9
   8314e:	4621      	mov	r1, r4
   83150:	f7ff fce8 	bl	82b24 <_fflush_r>
   83154:	2800      	cmp	r0, #0
   83156:	d18e      	bne.n	83076 <__sfvwrite_r+0xfa>
   83158:	f8cd a004 	str.w	sl, [sp, #4]
   8315c:	e7bb      	b.n	830d6 <__sfvwrite_r+0x15a>
   8315e:	6820      	ldr	r0, [r4, #0]
   83160:	4647      	mov	r7, r8
   83162:	46c3      	mov	fp, r8
   83164:	e75d      	b.n	83022 <__sfvwrite_r+0xa6>
   83166:	4658      	mov	r0, fp
   83168:	210a      	movs	r1, #10
   8316a:	4642      	mov	r2, r8
   8316c:	f000 fbca 	bl	83904 <memchr>
   83170:	2800      	cmp	r0, #0
   83172:	d07d      	beq.n	83270 <__sfvwrite_r+0x2f4>
   83174:	f100 0a01 	add.w	sl, r0, #1
   83178:	2701      	movs	r7, #1
   8317a:	ebcb 0a0a 	rsb	sl, fp, sl
   8317e:	9701      	str	r7, [sp, #4]
   83180:	e78c      	b.n	8309c <__sfvwrite_r+0x120>
   83182:	6822      	ldr	r2, [r4, #0]
   83184:	6921      	ldr	r1, [r4, #16]
   83186:	6967      	ldr	r7, [r4, #20]
   83188:	ebc1 0c02 	rsb	ip, r1, r2
   8318c:	eb07 0747 	add.w	r7, r7, r7, lsl #1
   83190:	f10c 0201 	add.w	r2, ip, #1
   83194:	eb07 77d7 	add.w	r7, r7, r7, lsr #31
   83198:	4442      	add	r2, r8
   8319a:	107f      	asrs	r7, r7, #1
   8319c:	4297      	cmp	r7, r2
   8319e:	bf34      	ite	cc
   831a0:	4617      	movcc	r7, r2
   831a2:	463a      	movcs	r2, r7
   831a4:	055b      	lsls	r3, r3, #21
   831a6:	d54d      	bpl.n	83244 <__sfvwrite_r+0x2c8>
   831a8:	4611      	mov	r1, r2
   831aa:	4648      	mov	r0, r9
   831ac:	f8cd c000 	str.w	ip, [sp]
   831b0:	f000 f90c 	bl	833cc <_malloc_r>
   831b4:	f8dd c000 	ldr.w	ip, [sp]
   831b8:	4683      	mov	fp, r0
   831ba:	2800      	cmp	r0, #0
   831bc:	d060      	beq.n	83280 <__sfvwrite_r+0x304>
   831be:	4662      	mov	r2, ip
   831c0:	6921      	ldr	r1, [r4, #16]
   831c2:	f8cd c000 	str.w	ip, [sp]
   831c6:	f000 fbe7 	bl	83998 <memcpy>
   831ca:	89a2      	ldrh	r2, [r4, #12]
   831cc:	f8dd c000 	ldr.w	ip, [sp]
   831d0:	f422 6290 	bic.w	r2, r2, #1152	; 0x480
   831d4:	f042 0280 	orr.w	r2, r2, #128	; 0x80
   831d8:	81a2      	strh	r2, [r4, #12]
   831da:	eb0b 000c 	add.w	r0, fp, ip
   831de:	ebcc 0207 	rsb	r2, ip, r7
   831e2:	f8c4 b010 	str.w	fp, [r4, #16]
   831e6:	6167      	str	r7, [r4, #20]
   831e8:	6020      	str	r0, [r4, #0]
   831ea:	60a2      	str	r2, [r4, #8]
   831ec:	4647      	mov	r7, r8
   831ee:	46c3      	mov	fp, r8
   831f0:	e717      	b.n	83022 <__sfvwrite_r+0xa6>
   831f2:	f06f 4200 	mvn.w	r2, #2147483648	; 0x80000000
   831f6:	4590      	cmp	r8, r2
   831f8:	bf38      	it	cc
   831fa:	4642      	movcc	r2, r8
   831fc:	fb92 f2f3 	sdiv	r2, r2, r3
   83200:	fb02 f303 	mul.w	r3, r2, r3
   83204:	6a67      	ldr	r7, [r4, #36]	; 0x24
   83206:	4648      	mov	r0, r9
   83208:	69e1      	ldr	r1, [r4, #28]
   8320a:	4652      	mov	r2, sl
   8320c:	47b8      	blx	r7
   8320e:	2800      	cmp	r0, #0
   83210:	f77f af31 	ble.w	83076 <__sfvwrite_r+0xfa>
   83214:	4602      	mov	r2, r0
   83216:	e710      	b.n	8303a <__sfvwrite_r+0xbe>
   83218:	4662      	mov	r2, ip
   8321a:	4659      	mov	r1, fp
   8321c:	f8cd c000 	str.w	ip, [sp]
   83220:	f000 fc30 	bl	83a84 <memmove>
   83224:	f8dd c000 	ldr.w	ip, [sp]
   83228:	6823      	ldr	r3, [r4, #0]
   8322a:	4648      	mov	r0, r9
   8322c:	4463      	add	r3, ip
   8322e:	6023      	str	r3, [r4, #0]
   83230:	4621      	mov	r1, r4
   83232:	f7ff fc77 	bl	82b24 <_fflush_r>
   83236:	f8dd c000 	ldr.w	ip, [sp]
   8323a:	2800      	cmp	r0, #0
   8323c:	f47f af1b 	bne.w	83076 <__sfvwrite_r+0xfa>
   83240:	4667      	mov	r7, ip
   83242:	e745      	b.n	830d0 <__sfvwrite_r+0x154>
   83244:	4648      	mov	r0, r9
   83246:	f8cd c000 	str.w	ip, [sp]
   8324a:	f000 fc85 	bl	83b58 <_realloc_r>
   8324e:	f8dd c000 	ldr.w	ip, [sp]
   83252:	4683      	mov	fp, r0
   83254:	2800      	cmp	r0, #0
   83256:	d1c0      	bne.n	831da <__sfvwrite_r+0x25e>
   83258:	4648      	mov	r0, r9
   8325a:	6921      	ldr	r1, [r4, #16]
   8325c:	f7ff fdc2 	bl	82de4 <_free_r>
   83260:	89a3      	ldrh	r3, [r4, #12]
   83262:	220c      	movs	r2, #12
   83264:	f023 0380 	bic.w	r3, r3, #128	; 0x80
   83268:	b29b      	uxth	r3, r3
   8326a:	f8c9 2000 	str.w	r2, [r9]
   8326e:	e703      	b.n	83078 <__sfvwrite_r+0xfc>
   83270:	2701      	movs	r7, #1
   83272:	f108 0a01 	add.w	sl, r8, #1
   83276:	9701      	str	r7, [sp, #4]
   83278:	e710      	b.n	8309c <__sfvwrite_r+0x120>
   8327a:	f04f 30ff 	mov.w	r0, #4294967295	; 0xffffffff
   8327e:	e6ac      	b.n	82fda <__sfvwrite_r+0x5e>
   83280:	230c      	movs	r3, #12
   83282:	f8c9 3000 	str.w	r3, [r9]
   83286:	89a3      	ldrh	r3, [r4, #12]
   83288:	e6f6      	b.n	83078 <__sfvwrite_r+0xfc>
   8328a:	bf00      	nop
   8328c:	7ffffc00 	svcvc	0x00fffc00

00083290 <_fwalk>:
   83290:	e92d 41f0 	stmdb	sp!, {r4, r5, r6, r7, r8, lr}
   83294:	f510 7738 	adds.w	r7, r0, #736	; 0x2e0
   83298:	4688      	mov	r8, r1
   8329a:	d019      	beq.n	832d0 <_fwalk+0x40>
   8329c:	2600      	movs	r6, #0
   8329e:	687d      	ldr	r5, [r7, #4]
   832a0:	68bc      	ldr	r4, [r7, #8]
   832a2:	3d01      	subs	r5, #1
   832a4:	d40e      	bmi.n	832c4 <_fwalk+0x34>
   832a6:	89a3      	ldrh	r3, [r4, #12]
   832a8:	3d01      	subs	r5, #1
   832aa:	2b01      	cmp	r3, #1
   832ac:	d906      	bls.n	832bc <_fwalk+0x2c>
   832ae:	f9b4 300e 	ldrsh.w	r3, [r4, #14]
   832b2:	4620      	mov	r0, r4
   832b4:	3301      	adds	r3, #1
   832b6:	d001      	beq.n	832bc <_fwalk+0x2c>
   832b8:	47c0      	blx	r8
   832ba:	4306      	orrs	r6, r0
   832bc:	1c6b      	adds	r3, r5, #1
   832be:	f104 0468 	add.w	r4, r4, #104	; 0x68
   832c2:	d1f0      	bne.n	832a6 <_fwalk+0x16>
   832c4:	683f      	ldr	r7, [r7, #0]
   832c6:	2f00      	cmp	r7, #0
   832c8:	d1e9      	bne.n	8329e <_fwalk+0xe>
   832ca:	4630      	mov	r0, r6
   832cc:	e8bd 81f0 	ldmia.w	sp!, {r4, r5, r6, r7, r8, pc}
   832d0:	463e      	mov	r6, r7
   832d2:	4630      	mov	r0, r6
   832d4:	e8bd 81f0 	ldmia.w	sp!, {r4, r5, r6, r7, r8, pc}

000832d8 <__locale_charset>:
   832d8:	4800      	ldr	r0, [pc, #0]	; (832dc <__locale_charset+0x4>)
   832da:	4770      	bx	lr
   832dc:	2007049c 	mulcs	r7, ip, r4

000832e0 <__locale_mb_cur_max>:
   832e0:	4b01      	ldr	r3, [pc, #4]	; (832e8 <__locale_mb_cur_max+0x8>)
   832e2:	6818      	ldr	r0, [r3, #0]
   832e4:	4770      	bx	lr
   832e6:	bf00      	nop
   832e8:	200704bc 			; <UNDEFINED> instruction: 0x200704bc

000832ec <__smakebuf_r>:
   832ec:	b5f0      	push	{r4, r5, r6, r7, lr}
   832ee:	898b      	ldrh	r3, [r1, #12]
   832f0:	b091      	sub	sp, #68	; 0x44
   832f2:	b29a      	uxth	r2, r3
   832f4:	0796      	lsls	r6, r2, #30
   832f6:	460c      	mov	r4, r1
   832f8:	4605      	mov	r5, r0
   832fa:	d437      	bmi.n	8336c <__smakebuf_r+0x80>
   832fc:	f9b1 100e 	ldrsh.w	r1, [r1, #14]
   83300:	2900      	cmp	r1, #0
   83302:	db17      	blt.n	83334 <__smakebuf_r+0x48>
   83304:	aa01      	add	r2, sp, #4
   83306:	f000 ffbb 	bl	84280 <_fstat_r>
   8330a:	2800      	cmp	r0, #0
   8330c:	db10      	blt.n	83330 <__smakebuf_r+0x44>
   8330e:	9b02      	ldr	r3, [sp, #8]
   83310:	f403 4370 	and.w	r3, r3, #61440	; 0xf000
   83314:	f5b3 5100 	subs.w	r1, r3, #8192	; 0x2000
   83318:	424f      	negs	r7, r1
   8331a:	414f      	adcs	r7, r1
   8331c:	f5b3 4f00 	cmp.w	r3, #32768	; 0x8000
   83320:	d02c      	beq.n	8337c <__smakebuf_r+0x90>
   83322:	89a3      	ldrh	r3, [r4, #12]
   83324:	f44f 6680 	mov.w	r6, #1024	; 0x400
   83328:	f443 6300 	orr.w	r3, r3, #2048	; 0x800
   8332c:	81a3      	strh	r3, [r4, #12]
   8332e:	e00b      	b.n	83348 <__smakebuf_r+0x5c>
   83330:	89a3      	ldrh	r3, [r4, #12]
   83332:	b29a      	uxth	r2, r3
   83334:	f012 0f80 	tst.w	r2, #128	; 0x80
   83338:	f443 6300 	orr.w	r3, r3, #2048	; 0x800
   8333c:	81a3      	strh	r3, [r4, #12]
   8333e:	bf14      	ite	ne
   83340:	2640      	movne	r6, #64	; 0x40
   83342:	f44f 6680 	moveq.w	r6, #1024	; 0x400
   83346:	2700      	movs	r7, #0
   83348:	4628      	mov	r0, r5
   8334a:	4631      	mov	r1, r6
   8334c:	f000 f83e 	bl	833cc <_malloc_r>
   83350:	89a3      	ldrh	r3, [r4, #12]
   83352:	2800      	cmp	r0, #0
   83354:	d029      	beq.n	833aa <__smakebuf_r+0xbe>
   83356:	4a1b      	ldr	r2, [pc, #108]	; (833c4 <__smakebuf_r+0xd8>)
   83358:	f043 0380 	orr.w	r3, r3, #128	; 0x80
   8335c:	63ea      	str	r2, [r5, #60]	; 0x3c
   8335e:	81a3      	strh	r3, [r4, #12]
   83360:	6020      	str	r0, [r4, #0]
   83362:	6120      	str	r0, [r4, #16]
   83364:	6166      	str	r6, [r4, #20]
   83366:	b9a7      	cbnz	r7, 83392 <__smakebuf_r+0xa6>
   83368:	b011      	add	sp, #68	; 0x44
   8336a:	bdf0      	pop	{r4, r5, r6, r7, pc}
   8336c:	f101 0343 	add.w	r3, r1, #67	; 0x43
   83370:	2201      	movs	r2, #1
   83372:	600b      	str	r3, [r1, #0]
   83374:	610b      	str	r3, [r1, #16]
   83376:	614a      	str	r2, [r1, #20]
   83378:	b011      	add	sp, #68	; 0x44
   8337a:	bdf0      	pop	{r4, r5, r6, r7, pc}
   8337c:	4a12      	ldr	r2, [pc, #72]	; (833c8 <__smakebuf_r+0xdc>)
   8337e:	6aa3      	ldr	r3, [r4, #40]	; 0x28
   83380:	4293      	cmp	r3, r2
   83382:	d1ce      	bne.n	83322 <__smakebuf_r+0x36>
   83384:	89a3      	ldrh	r3, [r4, #12]
   83386:	f44f 6680 	mov.w	r6, #1024	; 0x400
   8338a:	4333      	orrs	r3, r6
   8338c:	81a3      	strh	r3, [r4, #12]
   8338e:	64e6      	str	r6, [r4, #76]	; 0x4c
   83390:	e7da      	b.n	83348 <__smakebuf_r+0x5c>
   83392:	4628      	mov	r0, r5
   83394:	f9b4 100e 	ldrsh.w	r1, [r4, #14]
   83398:	f000 ff86 	bl	842a8 <_isatty_r>
   8339c:	2800      	cmp	r0, #0
   8339e:	d0e3      	beq.n	83368 <__smakebuf_r+0x7c>
   833a0:	89a3      	ldrh	r3, [r4, #12]
   833a2:	f043 0301 	orr.w	r3, r3, #1
   833a6:	81a3      	strh	r3, [r4, #12]
   833a8:	e7de      	b.n	83368 <__smakebuf_r+0x7c>
   833aa:	059a      	lsls	r2, r3, #22
   833ac:	d4dc      	bmi.n	83368 <__smakebuf_r+0x7c>
   833ae:	f104 0243 	add.w	r2, r4, #67	; 0x43
   833b2:	f043 0302 	orr.w	r3, r3, #2
   833b6:	2101      	movs	r1, #1
   833b8:	81a3      	strh	r3, [r4, #12]
   833ba:	6022      	str	r2, [r4, #0]
   833bc:	6122      	str	r2, [r4, #16]
   833be:	6161      	str	r1, [r4, #20]
   833c0:	e7d2      	b.n	83368 <__smakebuf_r+0x7c>
   833c2:	bf00      	nop
   833c4:	00082b51 	andeq	r2, r8, r1, asr fp
   833c8:	00083fc1 	andeq	r3, r8, r1, asr #31

000833cc <_malloc_r>:
   833cc:	e92d 4ff0 	stmdb	sp!, {r4, r5, r6, r7, r8, r9, sl, fp, lr}
   833d0:	f101 050b 	add.w	r5, r1, #11
   833d4:	2d16      	cmp	r5, #22
   833d6:	b083      	sub	sp, #12
   833d8:	4606      	mov	r6, r0
   833da:	d927      	bls.n	8342c <_malloc_r+0x60>
   833dc:	f035 0507 	bics.w	r5, r5, #7
   833e0:	d427      	bmi.n	83432 <_malloc_r+0x66>
   833e2:	42a9      	cmp	r1, r5
   833e4:	d825      	bhi.n	83432 <_malloc_r+0x66>
   833e6:	4630      	mov	r0, r6
   833e8:	f000 fbb2 	bl	83b50 <__malloc_lock>
   833ec:	f5b5 7ffc 	cmp.w	r5, #504	; 0x1f8
   833f0:	d226      	bcs.n	83440 <_malloc_r+0x74>
   833f2:	4fc1      	ldr	r7, [pc, #772]	; (836f8 <_malloc_r+0x32c>)
   833f4:	ea4f 0cd5 	mov.w	ip, r5, lsr #3
   833f8:	eb07 03cc 	add.w	r3, r7, ip, lsl #3
   833fc:	68dc      	ldr	r4, [r3, #12]
   833fe:	429c      	cmp	r4, r3
   83400:	f000 81d2 	beq.w	837a8 <_malloc_r+0x3dc>
   83404:	6863      	ldr	r3, [r4, #4]
   83406:	68e2      	ldr	r2, [r4, #12]
   83408:	f023 0303 	bic.w	r3, r3, #3
   8340c:	4423      	add	r3, r4
   8340e:	6858      	ldr	r0, [r3, #4]
   83410:	68a1      	ldr	r1, [r4, #8]
   83412:	f040 0501 	orr.w	r5, r0, #1
   83416:	60ca      	str	r2, [r1, #12]
   83418:	4630      	mov	r0, r6
   8341a:	6091      	str	r1, [r2, #8]
   8341c:	605d      	str	r5, [r3, #4]
   8341e:	f000 fb99 	bl	83b54 <__malloc_unlock>
   83422:	3408      	adds	r4, #8
   83424:	4620      	mov	r0, r4
   83426:	b003      	add	sp, #12
   83428:	e8bd 8ff0 	ldmia.w	sp!, {r4, r5, r6, r7, r8, r9, sl, fp, pc}
   8342c:	2510      	movs	r5, #16
   8342e:	42a9      	cmp	r1, r5
   83430:	d9d9      	bls.n	833e6 <_malloc_r+0x1a>
   83432:	2400      	movs	r4, #0
   83434:	230c      	movs	r3, #12
   83436:	4620      	mov	r0, r4
   83438:	6033      	str	r3, [r6, #0]
   8343a:	b003      	add	sp, #12
   8343c:	e8bd 8ff0 	ldmia.w	sp!, {r4, r5, r6, r7, r8, r9, sl, fp, pc}
   83440:	ea5f 2c55 	movs.w	ip, r5, lsr #9
   83444:	f000 8089 	beq.w	8355a <_malloc_r+0x18e>
   83448:	f1bc 0f04 	cmp.w	ip, #4
   8344c:	f200 8160 	bhi.w	83710 <_malloc_r+0x344>
   83450:	ea4f 1c95 	mov.w	ip, r5, lsr #6
   83454:	f10c 0c38 	add.w	ip, ip, #56	; 0x38
   83458:	ea4f 014c 	mov.w	r1, ip, lsl #1
   8345c:	4fa6      	ldr	r7, [pc, #664]	; (836f8 <_malloc_r+0x32c>)
   8345e:	eb07 0181 	add.w	r1, r7, r1, lsl #2
   83462:	68cc      	ldr	r4, [r1, #12]
   83464:	42a1      	cmp	r1, r4
   83466:	d105      	bne.n	83474 <_malloc_r+0xa8>
   83468:	e00c      	b.n	83484 <_malloc_r+0xb8>
   8346a:	2b00      	cmp	r3, #0
   8346c:	da79      	bge.n	83562 <_malloc_r+0x196>
   8346e:	68e4      	ldr	r4, [r4, #12]
   83470:	42a1      	cmp	r1, r4
   83472:	d007      	beq.n	83484 <_malloc_r+0xb8>
   83474:	6862      	ldr	r2, [r4, #4]
   83476:	f022 0203 	bic.w	r2, r2, #3
   8347a:	1b53      	subs	r3, r2, r5
   8347c:	2b0f      	cmp	r3, #15
   8347e:	ddf4      	ble.n	8346a <_malloc_r+0x9e>
   83480:	f10c 3cff 	add.w	ip, ip, #4294967295	; 0xffffffff
   83484:	f10c 0c01 	add.w	ip, ip, #1
   83488:	4b9b      	ldr	r3, [pc, #620]	; (836f8 <_malloc_r+0x32c>)
   8348a:	693c      	ldr	r4, [r7, #16]
   8348c:	f103 0e08 	add.w	lr, r3, #8
   83490:	4574      	cmp	r4, lr
   83492:	f000 817e 	beq.w	83792 <_malloc_r+0x3c6>
   83496:	6861      	ldr	r1, [r4, #4]
   83498:	f021 0103 	bic.w	r1, r1, #3
   8349c:	1b4a      	subs	r2, r1, r5
   8349e:	2a0f      	cmp	r2, #15
   834a0:	f300 8164 	bgt.w	8376c <_malloc_r+0x3a0>
   834a4:	2a00      	cmp	r2, #0
   834a6:	f8c3 e014 	str.w	lr, [r3, #20]
   834aa:	f8c3 e010 	str.w	lr, [r3, #16]
   834ae:	da69      	bge.n	83584 <_malloc_r+0x1b8>
   834b0:	f5b1 7f00 	cmp.w	r1, #512	; 0x200
   834b4:	f080 813a 	bcs.w	8372c <_malloc_r+0x360>
   834b8:	08c9      	lsrs	r1, r1, #3
   834ba:	108a      	asrs	r2, r1, #2
   834bc:	f04f 0801 	mov.w	r8, #1
   834c0:	fa08 f802 	lsl.w	r8, r8, r2
   834c4:	eb03 01c1 	add.w	r1, r3, r1, lsl #3
   834c8:	685a      	ldr	r2, [r3, #4]
   834ca:	6888      	ldr	r0, [r1, #8]
   834cc:	ea48 0202 	orr.w	r2, r8, r2
   834d0:	60a0      	str	r0, [r4, #8]
   834d2:	60e1      	str	r1, [r4, #12]
   834d4:	605a      	str	r2, [r3, #4]
   834d6:	608c      	str	r4, [r1, #8]
   834d8:	60c4      	str	r4, [r0, #12]
   834da:	ea4f 03ac 	mov.w	r3, ip, asr #2
   834de:	2001      	movs	r0, #1
   834e0:	4098      	lsls	r0, r3
   834e2:	4290      	cmp	r0, r2
   834e4:	d85b      	bhi.n	8359e <_malloc_r+0x1d2>
   834e6:	4202      	tst	r2, r0
   834e8:	d106      	bne.n	834f8 <_malloc_r+0x12c>
   834ea:	f02c 0c03 	bic.w	ip, ip, #3
   834ee:	0040      	lsls	r0, r0, #1
   834f0:	4202      	tst	r2, r0
   834f2:	f10c 0c04 	add.w	ip, ip, #4
   834f6:	d0fa      	beq.n	834ee <_malloc_r+0x122>
   834f8:	eb07 08cc 	add.w	r8, r7, ip, lsl #3
   834fc:	4644      	mov	r4, r8
   834fe:	46e1      	mov	r9, ip
   83500:	68e3      	ldr	r3, [r4, #12]
   83502:	429c      	cmp	r4, r3
   83504:	d107      	bne.n	83516 <_malloc_r+0x14a>
   83506:	e146      	b.n	83796 <_malloc_r+0x3ca>
   83508:	2a00      	cmp	r2, #0
   8350a:	f280 8157 	bge.w	837bc <_malloc_r+0x3f0>
   8350e:	68db      	ldr	r3, [r3, #12]
   83510:	429c      	cmp	r4, r3
   83512:	f000 8140 	beq.w	83796 <_malloc_r+0x3ca>
   83516:	6859      	ldr	r1, [r3, #4]
   83518:	f021 0103 	bic.w	r1, r1, #3
   8351c:	1b4a      	subs	r2, r1, r5
   8351e:	2a0f      	cmp	r2, #15
   83520:	ddf2      	ble.n	83508 <_malloc_r+0x13c>
   83522:	461c      	mov	r4, r3
   83524:	f854 cf08 	ldr.w	ip, [r4, #8]!
   83528:	68d9      	ldr	r1, [r3, #12]
   8352a:	f045 0901 	orr.w	r9, r5, #1
   8352e:	f042 0801 	orr.w	r8, r2, #1
   83532:	441d      	add	r5, r3
   83534:	f8c3 9004 	str.w	r9, [r3, #4]
   83538:	4630      	mov	r0, r6
   8353a:	f8cc 100c 	str.w	r1, [ip, #12]
   8353e:	f8c1 c008 	str.w	ip, [r1, #8]
   83542:	617d      	str	r5, [r7, #20]
   83544:	613d      	str	r5, [r7, #16]
   83546:	f8c5 e00c 	str.w	lr, [r5, #12]
   8354a:	f8c5 e008 	str.w	lr, [r5, #8]
   8354e:	f8c5 8004 	str.w	r8, [r5, #4]
   83552:	50aa      	str	r2, [r5, r2]
   83554:	f000 fafe 	bl	83b54 <__malloc_unlock>
   83558:	e764      	b.n	83424 <_malloc_r+0x58>
   8355a:	217e      	movs	r1, #126	; 0x7e
   8355c:	f04f 0c3f 	mov.w	ip, #63	; 0x3f
   83560:	e77c      	b.n	8345c <_malloc_r+0x90>
   83562:	4422      	add	r2, r4
   83564:	6850      	ldr	r0, [r2, #4]
   83566:	68e3      	ldr	r3, [r4, #12]
   83568:	68a1      	ldr	r1, [r4, #8]
   8356a:	f040 0501 	orr.w	r5, r0, #1
   8356e:	60cb      	str	r3, [r1, #12]
   83570:	4630      	mov	r0, r6
   83572:	6099      	str	r1, [r3, #8]
   83574:	6055      	str	r5, [r2, #4]
   83576:	f000 faed 	bl	83b54 <__malloc_unlock>
   8357a:	3408      	adds	r4, #8
   8357c:	4620      	mov	r0, r4
   8357e:	b003      	add	sp, #12
   83580:	e8bd 8ff0 	ldmia.w	sp!, {r4, r5, r6, r7, r8, r9, sl, fp, pc}
   83584:	4421      	add	r1, r4
   83586:	684b      	ldr	r3, [r1, #4]
   83588:	4630      	mov	r0, r6
   8358a:	f043 0301 	orr.w	r3, r3, #1
   8358e:	604b      	str	r3, [r1, #4]
   83590:	f000 fae0 	bl	83b54 <__malloc_unlock>
   83594:	3408      	adds	r4, #8
   83596:	4620      	mov	r0, r4
   83598:	b003      	add	sp, #12
   8359a:	e8bd 8ff0 	ldmia.w	sp!, {r4, r5, r6, r7, r8, r9, sl, fp, pc}
   8359e:	68bc      	ldr	r4, [r7, #8]
   835a0:	6863      	ldr	r3, [r4, #4]
   835a2:	f023 0903 	bic.w	r9, r3, #3
   835a6:	45a9      	cmp	r9, r5
   835a8:	d304      	bcc.n	835b4 <_malloc_r+0x1e8>
   835aa:	ebc5 0309 	rsb	r3, r5, r9
   835ae:	2b0f      	cmp	r3, #15
   835b0:	f300 8091 	bgt.w	836d6 <_malloc_r+0x30a>
   835b4:	4b51      	ldr	r3, [pc, #324]	; (836fc <_malloc_r+0x330>)
   835b6:	4a52      	ldr	r2, [pc, #328]	; (83700 <_malloc_r+0x334>)
   835b8:	6819      	ldr	r1, [r3, #0]
   835ba:	6813      	ldr	r3, [r2, #0]
   835bc:	eb05 0a01 	add.w	sl, r5, r1
   835c0:	3301      	adds	r3, #1
   835c2:	eb04 0b09 	add.w	fp, r4, r9
   835c6:	f000 8161 	beq.w	8388c <_malloc_r+0x4c0>
   835ca:	f50a 5a80 	add.w	sl, sl, #4096	; 0x1000
   835ce:	f10a 0a0f 	add.w	sl, sl, #15
   835d2:	f42a 6a7f 	bic.w	sl, sl, #4080	; 0xff0
   835d6:	f02a 0a0f 	bic.w	sl, sl, #15
   835da:	4630      	mov	r0, r6
   835dc:	4651      	mov	r1, sl
   835de:	9201      	str	r2, [sp, #4]
   835e0:	f000 fc9a 	bl	83f18 <_sbrk_r>
   835e4:	f1b0 3fff 	cmp.w	r0, #4294967295	; 0xffffffff
   835e8:	4680      	mov	r8, r0
   835ea:	9a01      	ldr	r2, [sp, #4]
   835ec:	f000 8101 	beq.w	837f2 <_malloc_r+0x426>
   835f0:	4583      	cmp	fp, r0
   835f2:	f200 80fb 	bhi.w	837ec <_malloc_r+0x420>
   835f6:	f8df c114 	ldr.w	ip, [pc, #276]	; 8370c <_malloc_r+0x340>
   835fa:	45c3      	cmp	fp, r8
   835fc:	f8dc 3000 	ldr.w	r3, [ip]
   83600:	4453      	add	r3, sl
   83602:	f8cc 3000 	str.w	r3, [ip]
   83606:	f000 814a 	beq.w	8389e <_malloc_r+0x4d2>
   8360a:	6812      	ldr	r2, [r2, #0]
   8360c:	493c      	ldr	r1, [pc, #240]	; (83700 <_malloc_r+0x334>)
   8360e:	3201      	adds	r2, #1
   83610:	bf1b      	ittet	ne
   83612:	ebcb 0b08 	rsbne	fp, fp, r8
   83616:	445b      	addne	r3, fp
   83618:	f8c1 8000 	streq.w	r8, [r1]
   8361c:	f8cc 3000 	strne.w	r3, [ip]
   83620:	f018 0307 	ands.w	r3, r8, #7
   83624:	f000 8114 	beq.w	83850 <_malloc_r+0x484>
   83628:	f1c3 0208 	rsb	r2, r3, #8
   8362c:	f5c3 5380 	rsb	r3, r3, #4096	; 0x1000
   83630:	4490      	add	r8, r2
   83632:	3308      	adds	r3, #8
   83634:	44c2      	add	sl, r8
   83636:	f3ca 0a0b 	ubfx	sl, sl, #0, #12
   8363a:	ebca 0a03 	rsb	sl, sl, r3
   8363e:	4651      	mov	r1, sl
   83640:	4630      	mov	r0, r6
   83642:	f8cd c004 	str.w	ip, [sp, #4]
   83646:	f000 fc67 	bl	83f18 <_sbrk_r>
   8364a:	1c43      	adds	r3, r0, #1
   8364c:	f8dd c004 	ldr.w	ip, [sp, #4]
   83650:	f000 8135 	beq.w	838be <_malloc_r+0x4f2>
   83654:	ebc8 0200 	rsb	r2, r8, r0
   83658:	4452      	add	r2, sl
   8365a:	f042 0201 	orr.w	r2, r2, #1
   8365e:	f8dc 3000 	ldr.w	r3, [ip]
   83662:	42bc      	cmp	r4, r7
   83664:	4453      	add	r3, sl
   83666:	f8c7 8008 	str.w	r8, [r7, #8]
   8366a:	f8cc 3000 	str.w	r3, [ip]
   8366e:	f8c8 2004 	str.w	r2, [r8, #4]
   83672:	f8df a098 	ldr.w	sl, [pc, #152]	; 8370c <_malloc_r+0x340>
   83676:	d015      	beq.n	836a4 <_malloc_r+0x2d8>
   83678:	f1b9 0f0f 	cmp.w	r9, #15
   8367c:	f240 80eb 	bls.w	83856 <_malloc_r+0x48a>
   83680:	6861      	ldr	r1, [r4, #4]
   83682:	f1a9 020c 	sub.w	r2, r9, #12
   83686:	f022 0207 	bic.w	r2, r2, #7
   8368a:	f001 0101 	and.w	r1, r1, #1
   8368e:	ea42 0e01 	orr.w	lr, r2, r1
   83692:	2005      	movs	r0, #5
   83694:	18a1      	adds	r1, r4, r2
   83696:	2a0f      	cmp	r2, #15
   83698:	f8c4 e004 	str.w	lr, [r4, #4]
   8369c:	6048      	str	r0, [r1, #4]
   8369e:	6088      	str	r0, [r1, #8]
   836a0:	f200 8111 	bhi.w	838c6 <_malloc_r+0x4fa>
   836a4:	4a17      	ldr	r2, [pc, #92]	; (83704 <_malloc_r+0x338>)
   836a6:	68bc      	ldr	r4, [r7, #8]
   836a8:	6811      	ldr	r1, [r2, #0]
   836aa:	428b      	cmp	r3, r1
   836ac:	bf88      	it	hi
   836ae:	6013      	strhi	r3, [r2, #0]
   836b0:	4a15      	ldr	r2, [pc, #84]	; (83708 <_malloc_r+0x33c>)
   836b2:	6811      	ldr	r1, [r2, #0]
   836b4:	428b      	cmp	r3, r1
   836b6:	bf88      	it	hi
   836b8:	6013      	strhi	r3, [r2, #0]
   836ba:	6862      	ldr	r2, [r4, #4]
   836bc:	f022 0203 	bic.w	r2, r2, #3
   836c0:	4295      	cmp	r5, r2
   836c2:	ebc5 0302 	rsb	r3, r5, r2
   836c6:	d801      	bhi.n	836cc <_malloc_r+0x300>
   836c8:	2b0f      	cmp	r3, #15
   836ca:	dc04      	bgt.n	836d6 <_malloc_r+0x30a>
   836cc:	4630      	mov	r0, r6
   836ce:	f000 fa41 	bl	83b54 <__malloc_unlock>
   836d2:	2400      	movs	r4, #0
   836d4:	e6a6      	b.n	83424 <_malloc_r+0x58>
   836d6:	f045 0201 	orr.w	r2, r5, #1
   836da:	f043 0301 	orr.w	r3, r3, #1
   836de:	4425      	add	r5, r4
   836e0:	6062      	str	r2, [r4, #4]
   836e2:	4630      	mov	r0, r6
   836e4:	60bd      	str	r5, [r7, #8]
   836e6:	606b      	str	r3, [r5, #4]
   836e8:	f000 fa34 	bl	83b54 <__malloc_unlock>
   836ec:	3408      	adds	r4, #8
   836ee:	4620      	mov	r0, r4
   836f0:	b003      	add	sp, #12
   836f2:	e8bd 8ff0 	ldmia.w	sp!, {r4, r5, r6, r7, r8, r9, sl, fp, pc}
   836f6:	bf00      	nop
   836f8:	200704c0 	andcs	r0, r7, r0, asr #9
   836fc:	200710cc 	andcs	r1, r7, ip, asr #1
   83700:	200708cc 	andcs	r0, r7, ip, asr #17
   83704:	200710c8 	andcs	r1, r7, r8, asr #1
   83708:	200710c4 	andcs	r1, r7, r4, asr #1
   8370c:	200710d0 	ldrdcs	r1, [r7], -r0
   83710:	f1bc 0f14 	cmp.w	ip, #20
   83714:	d961      	bls.n	837da <_malloc_r+0x40e>
   83716:	f1bc 0f54 	cmp.w	ip, #84	; 0x54
   8371a:	f200 808f 	bhi.w	8383c <_malloc_r+0x470>
   8371e:	ea4f 3c15 	mov.w	ip, r5, lsr #12
   83722:	f10c 0c6e 	add.w	ip, ip, #110	; 0x6e
   83726:	ea4f 014c 	mov.w	r1, ip, lsl #1
   8372a:	e697      	b.n	8345c <_malloc_r+0x90>
   8372c:	0a4b      	lsrs	r3, r1, #9
   8372e:	2b04      	cmp	r3, #4
   83730:	d958      	bls.n	837e4 <_malloc_r+0x418>
   83732:	2b14      	cmp	r3, #20
   83734:	f200 80ad 	bhi.w	83892 <_malloc_r+0x4c6>
   83738:	f103 025b 	add.w	r2, r3, #91	; 0x5b
   8373c:	0050      	lsls	r0, r2, #1
   8373e:	eb07 0080 	add.w	r0, r7, r0, lsl #2
   83742:	6883      	ldr	r3, [r0, #8]
   83744:	f8df 81b8 	ldr.w	r8, [pc, #440]	; 83900 <_malloc_r+0x534>
   83748:	4283      	cmp	r3, r0
   8374a:	f000 808a 	beq.w	83862 <_malloc_r+0x496>
   8374e:	685a      	ldr	r2, [r3, #4]
   83750:	f022 0203 	bic.w	r2, r2, #3
   83754:	4291      	cmp	r1, r2
   83756:	d202      	bcs.n	8375e <_malloc_r+0x392>
   83758:	689b      	ldr	r3, [r3, #8]
   8375a:	4298      	cmp	r0, r3
   8375c:	d1f7      	bne.n	8374e <_malloc_r+0x382>
   8375e:	68d9      	ldr	r1, [r3, #12]
   83760:	687a      	ldr	r2, [r7, #4]
   83762:	60e1      	str	r1, [r4, #12]
   83764:	60a3      	str	r3, [r4, #8]
   83766:	608c      	str	r4, [r1, #8]
   83768:	60dc      	str	r4, [r3, #12]
   8376a:	e6b6      	b.n	834da <_malloc_r+0x10e>
   8376c:	f045 0701 	orr.w	r7, r5, #1
   83770:	f042 0101 	orr.w	r1, r2, #1
   83774:	4425      	add	r5, r4
   83776:	6067      	str	r7, [r4, #4]
   83778:	4630      	mov	r0, r6
   8377a:	615d      	str	r5, [r3, #20]
   8377c:	611d      	str	r5, [r3, #16]
   8377e:	f8c5 e00c 	str.w	lr, [r5, #12]
   83782:	f8c5 e008 	str.w	lr, [r5, #8]
   83786:	6069      	str	r1, [r5, #4]
   83788:	50aa      	str	r2, [r5, r2]
   8378a:	3408      	adds	r4, #8
   8378c:	f000 f9e2 	bl	83b54 <__malloc_unlock>
   83790:	e648      	b.n	83424 <_malloc_r+0x58>
   83792:	685a      	ldr	r2, [r3, #4]
   83794:	e6a1      	b.n	834da <_malloc_r+0x10e>
   83796:	f109 0901 	add.w	r9, r9, #1
   8379a:	f019 0f03 	tst.w	r9, #3
   8379e:	f104 0408 	add.w	r4, r4, #8
   837a2:	f47f aead 	bne.w	83500 <_malloc_r+0x134>
   837a6:	e02d      	b.n	83804 <_malloc_r+0x438>
   837a8:	f104 0308 	add.w	r3, r4, #8
   837ac:	6964      	ldr	r4, [r4, #20]
   837ae:	42a3      	cmp	r3, r4
   837b0:	bf08      	it	eq
   837b2:	f10c 0c02 	addeq.w	ip, ip, #2
   837b6:	f43f ae67 	beq.w	83488 <_malloc_r+0xbc>
   837ba:	e623      	b.n	83404 <_malloc_r+0x38>
   837bc:	4419      	add	r1, r3
   837be:	6848      	ldr	r0, [r1, #4]
   837c0:	461c      	mov	r4, r3
   837c2:	f854 2f08 	ldr.w	r2, [r4, #8]!
   837c6:	68db      	ldr	r3, [r3, #12]
   837c8:	f040 0501 	orr.w	r5, r0, #1
   837cc:	604d      	str	r5, [r1, #4]
   837ce:	4630      	mov	r0, r6
   837d0:	60d3      	str	r3, [r2, #12]
   837d2:	609a      	str	r2, [r3, #8]
   837d4:	f000 f9be 	bl	83b54 <__malloc_unlock>
   837d8:	e624      	b.n	83424 <_malloc_r+0x58>
   837da:	f10c 0c5b 	add.w	ip, ip, #91	; 0x5b
   837de:	ea4f 014c 	mov.w	r1, ip, lsl #1
   837e2:	e63b      	b.n	8345c <_malloc_r+0x90>
   837e4:	098a      	lsrs	r2, r1, #6
   837e6:	3238      	adds	r2, #56	; 0x38
   837e8:	0050      	lsls	r0, r2, #1
   837ea:	e7a8      	b.n	8373e <_malloc_r+0x372>
   837ec:	42bc      	cmp	r4, r7
   837ee:	f43f af02 	beq.w	835f6 <_malloc_r+0x22a>
   837f2:	68bc      	ldr	r4, [r7, #8]
   837f4:	6862      	ldr	r2, [r4, #4]
   837f6:	f022 0203 	bic.w	r2, r2, #3
   837fa:	e761      	b.n	836c0 <_malloc_r+0x2f4>
   837fc:	f8d8 8000 	ldr.w	r8, [r8]
   83800:	4598      	cmp	r8, r3
   83802:	d17a      	bne.n	838fa <_malloc_r+0x52e>
   83804:	f01c 0f03 	tst.w	ip, #3
   83808:	f1a8 0308 	sub.w	r3, r8, #8
   8380c:	f10c 3cff 	add.w	ip, ip, #4294967295	; 0xffffffff
   83810:	d1f4      	bne.n	837fc <_malloc_r+0x430>
   83812:	687b      	ldr	r3, [r7, #4]
   83814:	ea23 0300 	bic.w	r3, r3, r0
   83818:	607b      	str	r3, [r7, #4]
   8381a:	0040      	lsls	r0, r0, #1
   8381c:	4298      	cmp	r0, r3
   8381e:	f63f aebe 	bhi.w	8359e <_malloc_r+0x1d2>
   83822:	2800      	cmp	r0, #0
   83824:	f43f aebb 	beq.w	8359e <_malloc_r+0x1d2>
   83828:	4203      	tst	r3, r0
   8382a:	46cc      	mov	ip, r9
   8382c:	f47f ae64 	bne.w	834f8 <_malloc_r+0x12c>
   83830:	0040      	lsls	r0, r0, #1
   83832:	4203      	tst	r3, r0
   83834:	f10c 0c04 	add.w	ip, ip, #4
   83838:	d0fa      	beq.n	83830 <_malloc_r+0x464>
   8383a:	e65d      	b.n	834f8 <_malloc_r+0x12c>
   8383c:	f5bc 7faa 	cmp.w	ip, #340	; 0x154
   83840:	d819      	bhi.n	83876 <_malloc_r+0x4aa>
   83842:	ea4f 3cd5 	mov.w	ip, r5, lsr #15
   83846:	f10c 0c77 	add.w	ip, ip, #119	; 0x77
   8384a:	ea4f 014c 	mov.w	r1, ip, lsl #1
   8384e:	e605      	b.n	8345c <_malloc_r+0x90>
   83850:	f44f 5380 	mov.w	r3, #4096	; 0x1000
   83854:	e6ee      	b.n	83634 <_malloc_r+0x268>
   83856:	2301      	movs	r3, #1
   83858:	f8c8 3004 	str.w	r3, [r8, #4]
   8385c:	4644      	mov	r4, r8
   8385e:	2200      	movs	r2, #0
   83860:	e72e      	b.n	836c0 <_malloc_r+0x2f4>
   83862:	1092      	asrs	r2, r2, #2
   83864:	2001      	movs	r0, #1
   83866:	4090      	lsls	r0, r2
   83868:	f8d8 2004 	ldr.w	r2, [r8, #4]
   8386c:	4619      	mov	r1, r3
   8386e:	4302      	orrs	r2, r0
   83870:	f8c8 2004 	str.w	r2, [r8, #4]
   83874:	e775      	b.n	83762 <_malloc_r+0x396>
   83876:	f240 5354 	movw	r3, #1364	; 0x554
   8387a:	459c      	cmp	ip, r3
   8387c:	d81b      	bhi.n	838b6 <_malloc_r+0x4ea>
   8387e:	ea4f 4c95 	mov.w	ip, r5, lsr #18
   83882:	f10c 0c7c 	add.w	ip, ip, #124	; 0x7c
   83886:	ea4f 014c 	mov.w	r1, ip, lsl #1
   8388a:	e5e7      	b.n	8345c <_malloc_r+0x90>
   8388c:	f10a 0a10 	add.w	sl, sl, #16
   83890:	e6a3      	b.n	835da <_malloc_r+0x20e>
   83892:	2b54      	cmp	r3, #84	; 0x54
   83894:	d81f      	bhi.n	838d6 <_malloc_r+0x50a>
   83896:	0b0a      	lsrs	r2, r1, #12
   83898:	326e      	adds	r2, #110	; 0x6e
   8389a:	0050      	lsls	r0, r2, #1
   8389c:	e74f      	b.n	8373e <_malloc_r+0x372>
   8389e:	f3cb 010b 	ubfx	r1, fp, #0, #12
   838a2:	2900      	cmp	r1, #0
   838a4:	f47f aeb1 	bne.w	8360a <_malloc_r+0x23e>
   838a8:	eb0a 0109 	add.w	r1, sl, r9
   838ac:	68ba      	ldr	r2, [r7, #8]
   838ae:	f041 0101 	orr.w	r1, r1, #1
   838b2:	6051      	str	r1, [r2, #4]
   838b4:	e6f6      	b.n	836a4 <_malloc_r+0x2d8>
   838b6:	21fc      	movs	r1, #252	; 0xfc
   838b8:	f04f 0c7e 	mov.w	ip, #126	; 0x7e
   838bc:	e5ce      	b.n	8345c <_malloc_r+0x90>
   838be:	2201      	movs	r2, #1
   838c0:	f04f 0a00 	mov.w	sl, #0
   838c4:	e6cb      	b.n	8365e <_malloc_r+0x292>
   838c6:	f104 0108 	add.w	r1, r4, #8
   838ca:	4630      	mov	r0, r6
   838cc:	f7ff fa8a 	bl	82de4 <_free_r>
   838d0:	f8da 3000 	ldr.w	r3, [sl]
   838d4:	e6e6      	b.n	836a4 <_malloc_r+0x2d8>
   838d6:	f5b3 7faa 	cmp.w	r3, #340	; 0x154
   838da:	d803      	bhi.n	838e4 <_malloc_r+0x518>
   838dc:	0bca      	lsrs	r2, r1, #15
   838de:	3277      	adds	r2, #119	; 0x77
   838e0:	0050      	lsls	r0, r2, #1
   838e2:	e72c      	b.n	8373e <_malloc_r+0x372>
   838e4:	f240 5254 	movw	r2, #1364	; 0x554
   838e8:	4293      	cmp	r3, r2
   838ea:	d803      	bhi.n	838f4 <_malloc_r+0x528>
   838ec:	0c8a      	lsrs	r2, r1, #18
   838ee:	327c      	adds	r2, #124	; 0x7c
   838f0:	0050      	lsls	r0, r2, #1
   838f2:	e724      	b.n	8373e <_malloc_r+0x372>
   838f4:	20fc      	movs	r0, #252	; 0xfc
   838f6:	227e      	movs	r2, #126	; 0x7e
   838f8:	e721      	b.n	8373e <_malloc_r+0x372>
   838fa:	687b      	ldr	r3, [r7, #4]
   838fc:	e78d      	b.n	8381a <_malloc_r+0x44e>
   838fe:	bf00      	nop
   83900:	200704c0 	andcs	r0, r7, r0, asr #9

00083904 <memchr>:
   83904:	0783      	lsls	r3, r0, #30
   83906:	b470      	push	{r4, r5, r6}
   83908:	b2c9      	uxtb	r1, r1
   8390a:	d040      	beq.n	8398e <memchr+0x8a>
   8390c:	1e54      	subs	r4, r2, #1
   8390e:	b32a      	cbz	r2, 8395c <memchr+0x58>
   83910:	7803      	ldrb	r3, [r0, #0]
   83912:	428b      	cmp	r3, r1
   83914:	d023      	beq.n	8395e <memchr+0x5a>
   83916:	1c43      	adds	r3, r0, #1
   83918:	e004      	b.n	83924 <memchr+0x20>
   8391a:	b1fc      	cbz	r4, 8395c <memchr+0x58>
   8391c:	7805      	ldrb	r5, [r0, #0]
   8391e:	4614      	mov	r4, r2
   83920:	428d      	cmp	r5, r1
   83922:	d01c      	beq.n	8395e <memchr+0x5a>
   83924:	f013 0f03 	tst.w	r3, #3
   83928:	4618      	mov	r0, r3
   8392a:	f104 32ff 	add.w	r2, r4, #4294967295	; 0xffffffff
   8392e:	f103 0301 	add.w	r3, r3, #1
   83932:	d1f2      	bne.n	8391a <memchr+0x16>
   83934:	2c03      	cmp	r4, #3
   83936:	d814      	bhi.n	83962 <memchr+0x5e>
   83938:	1e65      	subs	r5, r4, #1
   8393a:	b354      	cbz	r4, 83992 <memchr+0x8e>
   8393c:	7803      	ldrb	r3, [r0, #0]
   8393e:	428b      	cmp	r3, r1
   83940:	d00d      	beq.n	8395e <memchr+0x5a>
   83942:	1c42      	adds	r2, r0, #1
   83944:	2300      	movs	r3, #0
   83946:	e002      	b.n	8394e <memchr+0x4a>
   83948:	7804      	ldrb	r4, [r0, #0]
   8394a:	428c      	cmp	r4, r1
   8394c:	d007      	beq.n	8395e <memchr+0x5a>
   8394e:	42ab      	cmp	r3, r5
   83950:	4610      	mov	r0, r2
   83952:	f103 0301 	add.w	r3, r3, #1
   83956:	f102 0201 	add.w	r2, r2, #1
   8395a:	d1f5      	bne.n	83948 <memchr+0x44>
   8395c:	2000      	movs	r0, #0
   8395e:	bc70      	pop	{r4, r5, r6}
   83960:	4770      	bx	lr
   83962:	ea41 2601 	orr.w	r6, r1, r1, lsl #8
   83966:	4603      	mov	r3, r0
   83968:	ea46 4606 	orr.w	r6, r6, r6, lsl #16
   8396c:	681a      	ldr	r2, [r3, #0]
   8396e:	4618      	mov	r0, r3
   83970:	4072      	eors	r2, r6
   83972:	f1a2 3501 	sub.w	r5, r2, #16843009	; 0x1010101
   83976:	ea25 0202 	bic.w	r2, r5, r2
   8397a:	f012 3f80 	tst.w	r2, #2155905152	; 0x80808080
   8397e:	f103 0304 	add.w	r3, r3, #4
   83982:	d1d9      	bne.n	83938 <memchr+0x34>
   83984:	3c04      	subs	r4, #4
   83986:	2c03      	cmp	r4, #3
   83988:	4618      	mov	r0, r3
   8398a:	d8ef      	bhi.n	8396c <memchr+0x68>
   8398c:	e7d4      	b.n	83938 <memchr+0x34>
   8398e:	4614      	mov	r4, r2
   83990:	e7d0      	b.n	83934 <memchr+0x30>
   83992:	4620      	mov	r0, r4
   83994:	e7e3      	b.n	8395e <memchr+0x5a>
   83996:	bf00      	nop

00083998 <memcpy>:
   83998:	4684      	mov	ip, r0
   8399a:	ea41 0300 	orr.w	r3, r1, r0
   8399e:	f013 0303 	ands.w	r3, r3, #3
   839a2:	d149      	bne.n	83a38 <memcpy+0xa0>
   839a4:	3a40      	subs	r2, #64	; 0x40
   839a6:	d323      	bcc.n	839f0 <memcpy+0x58>
   839a8:	680b      	ldr	r3, [r1, #0]
   839aa:	6003      	str	r3, [r0, #0]
   839ac:	684b      	ldr	r3, [r1, #4]
   839ae:	6043      	str	r3, [r0, #4]
   839b0:	688b      	ldr	r3, [r1, #8]
   839b2:	6083      	str	r3, [r0, #8]
   839b4:	68cb      	ldr	r3, [r1, #12]
   839b6:	60c3      	str	r3, [r0, #12]
   839b8:	690b      	ldr	r3, [r1, #16]
   839ba:	6103      	str	r3, [r0, #16]
   839bc:	694b      	ldr	r3, [r1, #20]
   839be:	6143      	str	r3, [r0, #20]
   839c0:	698b      	ldr	r3, [r1, #24]
   839c2:	6183      	str	r3, [r0, #24]
   839c4:	69cb      	ldr	r3, [r1, #28]
   839c6:	61c3      	str	r3, [r0, #28]
   839c8:	6a0b      	ldr	r3, [r1, #32]
   839ca:	6203      	str	r3, [r0, #32]
   839cc:	6a4b      	ldr	r3, [r1, #36]	; 0x24
   839ce:	6243      	str	r3, [r0, #36]	; 0x24
   839d0:	6a8b      	ldr	r3, [r1, #40]	; 0x28
   839d2:	6283      	str	r3, [r0, #40]	; 0x28
   839d4:	6acb      	ldr	r3, [r1, #44]	; 0x2c
   839d6:	62c3      	str	r3, [r0, #44]	; 0x2c
   839d8:	6b0b      	ldr	r3, [r1, #48]	; 0x30
   839da:	6303      	str	r3, [r0, #48]	; 0x30
   839dc:	6b4b      	ldr	r3, [r1, #52]	; 0x34
   839de:	6343      	str	r3, [r0, #52]	; 0x34
   839e0:	6b8b      	ldr	r3, [r1, #56]	; 0x38
   839e2:	6383      	str	r3, [r0, #56]	; 0x38
   839e4:	6bcb      	ldr	r3, [r1, #60]	; 0x3c
   839e6:	63c3      	str	r3, [r0, #60]	; 0x3c
   839e8:	3040      	adds	r0, #64	; 0x40
   839ea:	3140      	adds	r1, #64	; 0x40
   839ec:	3a40      	subs	r2, #64	; 0x40
   839ee:	d2db      	bcs.n	839a8 <memcpy+0x10>
   839f0:	3230      	adds	r2, #48	; 0x30
   839f2:	d30b      	bcc.n	83a0c <memcpy+0x74>
   839f4:	680b      	ldr	r3, [r1, #0]
   839f6:	6003      	str	r3, [r0, #0]
   839f8:	684b      	ldr	r3, [r1, #4]
   839fa:	6043      	str	r3, [r0, #4]
   839fc:	688b      	ldr	r3, [r1, #8]
   839fe:	6083      	str	r3, [r0, #8]
   83a00:	68cb      	ldr	r3, [r1, #12]
   83a02:	60c3      	str	r3, [r0, #12]
   83a04:	3010      	adds	r0, #16
   83a06:	3110      	adds	r1, #16
   83a08:	3a10      	subs	r2, #16
   83a0a:	d2f3      	bcs.n	839f4 <memcpy+0x5c>
   83a0c:	320c      	adds	r2, #12
   83a0e:	d305      	bcc.n	83a1c <memcpy+0x84>
   83a10:	f851 3b04 	ldr.w	r3, [r1], #4
   83a14:	f840 3b04 	str.w	r3, [r0], #4
   83a18:	3a04      	subs	r2, #4
   83a1a:	d2f9      	bcs.n	83a10 <memcpy+0x78>
   83a1c:	3204      	adds	r2, #4
   83a1e:	d008      	beq.n	83a32 <memcpy+0x9a>
   83a20:	07d2      	lsls	r2, r2, #31
   83a22:	bf1c      	itt	ne
   83a24:	f811 3b01 	ldrbne.w	r3, [r1], #1
   83a28:	f800 3b01 	strbne.w	r3, [r0], #1
   83a2c:	d301      	bcc.n	83a32 <memcpy+0x9a>
   83a2e:	880b      	ldrh	r3, [r1, #0]
   83a30:	8003      	strh	r3, [r0, #0]
   83a32:	4660      	mov	r0, ip
   83a34:	4770      	bx	lr
   83a36:	bf00      	nop
   83a38:	2a08      	cmp	r2, #8
   83a3a:	d313      	bcc.n	83a64 <memcpy+0xcc>
   83a3c:	078b      	lsls	r3, r1, #30
   83a3e:	d0b1      	beq.n	839a4 <memcpy+0xc>
   83a40:	f010 0303 	ands.w	r3, r0, #3
   83a44:	d0ae      	beq.n	839a4 <memcpy+0xc>
   83a46:	f1c3 0304 	rsb	r3, r3, #4
   83a4a:	1ad2      	subs	r2, r2, r3
   83a4c:	07db      	lsls	r3, r3, #31
   83a4e:	bf1c      	itt	ne
   83a50:	f811 3b01 	ldrbne.w	r3, [r1], #1
   83a54:	f800 3b01 	strbne.w	r3, [r0], #1
   83a58:	d3a4      	bcc.n	839a4 <memcpy+0xc>
   83a5a:	f831 3b02 	ldrh.w	r3, [r1], #2
   83a5e:	f820 3b02 	strh.w	r3, [r0], #2
   83a62:	e79f      	b.n	839a4 <memcpy+0xc>
   83a64:	3a04      	subs	r2, #4
   83a66:	d3d9      	bcc.n	83a1c <memcpy+0x84>
   83a68:	3a01      	subs	r2, #1
   83a6a:	f811 3b01 	ldrb.w	r3, [r1], #1
   83a6e:	f800 3b01 	strb.w	r3, [r0], #1
   83a72:	d2f9      	bcs.n	83a68 <memcpy+0xd0>
   83a74:	780b      	ldrb	r3, [r1, #0]
   83a76:	7003      	strb	r3, [r0, #0]
   83a78:	784b      	ldrb	r3, [r1, #1]
   83a7a:	7043      	strb	r3, [r0, #1]
   83a7c:	788b      	ldrb	r3, [r1, #2]
   83a7e:	7083      	strb	r3, [r0, #2]
   83a80:	4660      	mov	r0, ip
   83a82:	4770      	bx	lr

00083a84 <memmove>:
   83a84:	4288      	cmp	r0, r1
   83a86:	b4f0      	push	{r4, r5, r6, r7}
   83a88:	d910      	bls.n	83aac <memmove+0x28>
   83a8a:	188c      	adds	r4, r1, r2
   83a8c:	42a0      	cmp	r0, r4
   83a8e:	d20d      	bcs.n	83aac <memmove+0x28>
   83a90:	1885      	adds	r5, r0, r2
   83a92:	1e53      	subs	r3, r2, #1
   83a94:	b142      	cbz	r2, 83aa8 <memmove+0x24>
   83a96:	4621      	mov	r1, r4
   83a98:	462a      	mov	r2, r5
   83a9a:	f811 4d01 	ldrb.w	r4, [r1, #-1]!
   83a9e:	3b01      	subs	r3, #1
   83aa0:	f802 4d01 	strb.w	r4, [r2, #-1]!
   83aa4:	1c5c      	adds	r4, r3, #1
   83aa6:	d1f8      	bne.n	83a9a <memmove+0x16>
   83aa8:	bcf0      	pop	{r4, r5, r6, r7}
   83aaa:	4770      	bx	lr
   83aac:	2a0f      	cmp	r2, #15
   83aae:	d944      	bls.n	83b3a <memmove+0xb6>
   83ab0:	ea40 0301 	orr.w	r3, r0, r1
   83ab4:	079b      	lsls	r3, r3, #30
   83ab6:	d144      	bne.n	83b42 <memmove+0xbe>
   83ab8:	f1a2 0710 	sub.w	r7, r2, #16
   83abc:	093f      	lsrs	r7, r7, #4
   83abe:	eb00 1607 	add.w	r6, r0, r7, lsl #4
   83ac2:	3610      	adds	r6, #16
   83ac4:	460c      	mov	r4, r1
   83ac6:	4603      	mov	r3, r0
   83ac8:	6825      	ldr	r5, [r4, #0]
   83aca:	3310      	adds	r3, #16
   83acc:	f843 5c10 	str.w	r5, [r3, #-16]
   83ad0:	6865      	ldr	r5, [r4, #4]
   83ad2:	3410      	adds	r4, #16
   83ad4:	f843 5c0c 	str.w	r5, [r3, #-12]
   83ad8:	f854 5c08 	ldr.w	r5, [r4, #-8]
   83adc:	f843 5c08 	str.w	r5, [r3, #-8]
   83ae0:	f854 5c04 	ldr.w	r5, [r4, #-4]
   83ae4:	f843 5c04 	str.w	r5, [r3, #-4]
   83ae8:	42b3      	cmp	r3, r6
   83aea:	d1ed      	bne.n	83ac8 <memmove+0x44>
   83aec:	1c7b      	adds	r3, r7, #1
   83aee:	f002 0c0f 	and.w	ip, r2, #15
   83af2:	011b      	lsls	r3, r3, #4
   83af4:	f1bc 0f03 	cmp.w	ip, #3
   83af8:	4419      	add	r1, r3
   83afa:	4403      	add	r3, r0
   83afc:	d923      	bls.n	83b46 <memmove+0xc2>
   83afe:	460e      	mov	r6, r1
   83b00:	461d      	mov	r5, r3
   83b02:	4664      	mov	r4, ip
   83b04:	f856 7b04 	ldr.w	r7, [r6], #4
   83b08:	3c04      	subs	r4, #4
   83b0a:	2c03      	cmp	r4, #3
   83b0c:	f845 7b04 	str.w	r7, [r5], #4
   83b10:	d8f8      	bhi.n	83b04 <memmove+0x80>
   83b12:	f1ac 0404 	sub.w	r4, ip, #4
   83b16:	f024 0403 	bic.w	r4, r4, #3
   83b1a:	3404      	adds	r4, #4
   83b1c:	f002 0203 	and.w	r2, r2, #3
   83b20:	4423      	add	r3, r4
   83b22:	4421      	add	r1, r4
   83b24:	2a00      	cmp	r2, #0
   83b26:	d0bf      	beq.n	83aa8 <memmove+0x24>
   83b28:	441a      	add	r2, r3
   83b2a:	f811 4b01 	ldrb.w	r4, [r1], #1
   83b2e:	f803 4b01 	strb.w	r4, [r3], #1
   83b32:	4293      	cmp	r3, r2
   83b34:	d1f9      	bne.n	83b2a <memmove+0xa6>
   83b36:	bcf0      	pop	{r4, r5, r6, r7}
   83b38:	4770      	bx	lr
   83b3a:	4603      	mov	r3, r0
   83b3c:	2a00      	cmp	r2, #0
   83b3e:	d1f3      	bne.n	83b28 <memmove+0xa4>
   83b40:	e7b2      	b.n	83aa8 <memmove+0x24>
   83b42:	4603      	mov	r3, r0
   83b44:	e7f0      	b.n	83b28 <memmove+0xa4>
   83b46:	4662      	mov	r2, ip
   83b48:	2a00      	cmp	r2, #0
   83b4a:	d1ed      	bne.n	83b28 <memmove+0xa4>
   83b4c:	e7ac      	b.n	83aa8 <memmove+0x24>
   83b4e:	bf00      	nop

00083b50 <__malloc_lock>:
   83b50:	4770      	bx	lr
   83b52:	bf00      	nop

00083b54 <__malloc_unlock>:
   83b54:	4770      	bx	lr
   83b56:	bf00      	nop

00083b58 <_realloc_r>:
   83b58:	e92d 4ff0 	stmdb	sp!, {r4, r5, r6, r7, r8, r9, sl, fp, lr}
   83b5c:	460c      	mov	r4, r1
   83b5e:	b083      	sub	sp, #12
   83b60:	4690      	mov	r8, r2
   83b62:	4681      	mov	r9, r0
   83b64:	2900      	cmp	r1, #0
   83b66:	f000 80ba 	beq.w	83cde <_realloc_r+0x186>
   83b6a:	f7ff fff1 	bl	83b50 <__malloc_lock>
   83b6e:	f108 060b 	add.w	r6, r8, #11
   83b72:	f854 3c04 	ldr.w	r3, [r4, #-4]
   83b76:	2e16      	cmp	r6, #22
   83b78:	f023 0503 	bic.w	r5, r3, #3
   83b7c:	f1a4 0708 	sub.w	r7, r4, #8
   83b80:	d84b      	bhi.n	83c1a <_realloc_r+0xc2>
   83b82:	2110      	movs	r1, #16
   83b84:	460e      	mov	r6, r1
   83b86:	45b0      	cmp	r8, r6
   83b88:	d84c      	bhi.n	83c24 <_realloc_r+0xcc>
   83b8a:	428d      	cmp	r5, r1
   83b8c:	da51      	bge.n	83c32 <_realloc_r+0xda>
   83b8e:	f8df b384 	ldr.w	fp, [pc, #900]	; 83f14 <_realloc_r+0x3bc>
   83b92:	1978      	adds	r0, r7, r5
   83b94:	f8db e008 	ldr.w	lr, [fp, #8]
   83b98:	4586      	cmp	lr, r0
   83b9a:	f000 80a6 	beq.w	83cea <_realloc_r+0x192>
   83b9e:	6842      	ldr	r2, [r0, #4]
   83ba0:	f022 0c01 	bic.w	ip, r2, #1
   83ba4:	4484      	add	ip, r0
   83ba6:	f8dc c004 	ldr.w	ip, [ip, #4]
   83baa:	f01c 0f01 	tst.w	ip, #1
   83bae:	d054      	beq.n	83c5a <_realloc_r+0x102>
   83bb0:	2200      	movs	r2, #0
